(lp1
(S'CGGTGACGAGGCCGCATA'
p2
S'CGGCGACGAGGCCGCATA'
p3
tp4
a(S'GGAGGTTGCACATCAACG'
p5
S'GGCGGTTGCACATCAACG'
p6
tp7
a(g5
S'GGAGGCTGCACATCAACG'
p8
tp9
a(S'GCCGCCGTCGCCTCACCC'
p10
S'GCCGACGTCGCCTCACCC'
p11
tp12
a(S'CCGTCGGCGGGTTTCCGC'
p13
S'CCGTCGGTGGGTTTCCGC'
p14
tp15
a(S'TGCACAGCATAAGCAACG'
p16
S'TGCAAAGCATAAGCAACG'
p17
tp18
a(S'CGAAGAAGCCGAAGGAGT'
p19
S'CGAAGAAGCCGAAGGAGA'
p20
tp21
a(S'GTGGAGGGCTTGGGCCGG'
p22
S'GTGGAGGGTTTGGGCCGG'
p23
tp24
a(S'ATCATGCCGACAAGACGA'
p25
S'ATCCTGCCGACAAGACGA'
p26
tp27
a(S'AGGCGAAGGGAGTGGGCA'
p28
S'AGGAGAAGGGAGTGGGCA'
p29
tp30
a(S'GAGTGAAGGGTGGGGGGA'
p31
S'GAGTGAAGGGCGGGGGGA'
p32
tp33
a(g31
S'GAGTGAAGGGAGGGGGGA'
p34
tp35
a(S'CCTGGGAATTTGGGGTGG'
p36
S'CCTGGGAATTTGGGGGGG'
p37
tp38
a(S'TTCGATTAGATTAGGTAC'
p39
S'TTCGCTTAGATTAGGTAC'
p40
tp41
a(S'ATATAAGTGGTTTATTCA'
p42
S'ATATAAGCGGTTTATTCA'
p43
tp44
a(S'CGTGCAGGCGGGGGGATA'
p45
S'CGTGCAGGCGGGGGCATA'
p46
tp47
a(S'AGAAGGTTAAGTTGCCCC'
p48
S'AGAAGGCTAAGTTGCCCC'
p49
tp50
a(S'TTAGCATTGGTATTTCGG'
p51
S'TTAGTATTGGTATTTCGG'
p52
tp53
a(S'TACGCCCAGAGCTGAGGT'
p54
S'TACGCCCAGAGCTGAGGC'
p55
tp56
a(S'ACATTGCTTTTTGGAAGC'
p57
S'ACATTGCTTTTGGGAAGC'
p58
tp59
a(S'TGGGTGGGGTGCGTGGCG'
p60
S'TGGGCGGGGTGCGTGGCG'
p61
tp62
a(S'ATTTTCTAGCACTTGAAC'
p63
S'ATTTTCTAGAACTTGAAC'
p64
tp65
a(S'GGCATGGGGGTTGAGCTC'
p66
S'GGCAGGGGGGTTGAGCTC'
p67
tp68
a(S'GATGACTTTTAAAAAGAA'
p69
S'TATGACTTTTAAAAAGAA'
p70
tp71
a(S'GTGGTGAGGTGAGCGTCT'
p72
S'GTGGCGAGGTGAGCGTCT'
p73
tp74
a(S'ATGCTCCTGGCGACTTAA'
p75
S'ATGCCCCTGGCGACTTAA'
p76
tp77
a(S'AAGGGTTAGGCAAATTAT'
p78
S'AAGGGTTAGGTAAATTAT'
p79
tp80
a(S'GGGAGTTAACAGCAGGGG'
p81
S'GGGCGTTAACAGCAGGGG'
p82
tp83
a(g81
S'GGGTGTTAACAGCAGGGG'
p84
tp85
a(S'GCGCCAGATCATCCAGCT'
p86
S'GCGCTAGATCATCCAGCT'
p87
tp88
a(S'ATACTTTGGGCACCAGTA'
p89
S'ATACTTTGGGTACCAGTA'
p90
tp91
a(S'AGGTTGTGGTGTCCAAAG'
p92
S'AGGCTGTGGTGTCCAAAG'
p93
tp94
a(g92
S'AGGTTGTGGAGTCCAAAG'
p95
tp96
a(S'GGTGTGCTCTCGCGGGCC'
p97
S'GGAGTGCTCTCGCGGGCC'
p98
tp99
a(S'GAGTGGTGTCAAAAGGGC'
p100
S'GAGCGGTGTCAAAAGGGC'
p101
tp102
a(S'TATAATAGCCGTCCGGGT'
p103
S'TATAATACCCGTCCGGGT'
p104
tp105
a(S'TGTGCAACCTCCTGGCCC'
p106
S'TGTGCAACCTCCTGGTCC'
p107
tp108
a(S'GAGCATTTTACGGTACGA'
p109
S'GAGTATTTTACGGTACGA'
p110
tp111
a(S'AACCGAACTGCCGAACCA'
p112
S'AACCGAACTGCCTAACCA'
p113
tp114
a(S'GAGTCTCCAGGCCTAGTG'
p115
S'GAGTCTCCAGGCCTAGCG'
p116
tp117
a(S'CGCCAAGGGGTGGGCCGG'
p118
S'CGCCAATGGGTGGGCCGG'
p119
tp120
a(S'GCTGGCTATTGCATGGGG'
p121
S'GTTGGCTATTGCATGGGG'
p122
tp123
a(S'AGGCGGCAATTGCTAGGT'
p124
S'AGGCGGCAATTGCTAGGG'
p125
tp126
a(S'GCGGCACAGGTTTTGGCG'
p127
S'GCGGCACAGGCTTTGGCG'
p128
tp129
a(S'CCAAACGTGGTCAGTACG'
p130
S'CCAAACGTTGTCAGTACG'
p131
tp132
a(g130
S'CCAAACGCGGTCAGTACG'
p133
tp134
a(S'TAATTTTAGGTTGACGAT'
p135
S'TAATTTTAGGCTGACGAT'
p136
tp137
a(S'AGTATACAATCTGTCGGA'
p138
S'AGCATACAATCTGTCGGA'
p139
tp140
a(S'GTTGGTCACTCGTCATTT'
p141
S'GTTGGTCACTCGCCATTT'
p142
tp143
a(S'CGCTGGCGTCTAGCGAGA'
p144
S'CGCTGGCGTCTAGCGATA'
p145
tp146
a(S'GGGGCGGAAATGATAAGG'
p147
S'GGGGTGGAAATGATAAGG'
p148
tp149
a(S'GCATTTTATTGACAAGTT'
p150
S'GTATTTTATTGACAAGTT'
p151
tp152
a(S'AAGGTAAGGAGTGGGTGA'
p153
S'AAGGCAAGGAGTGGGTGA'
p154
tp155
a(S'TTTGCGGAGGGGCCGACA'
p156
S'TTTGCGGAGGGGTCGACA'
p157
tp158
a(S'AAAGACAGTATTCTAGTC'
p159
S'AAAGCCAGTATTCTAGTC'
p160
tp161
a(S'TAGGCCAATGGGTGTAGA'
p162
S'TAGGCCAACGGGTGTAGA'
p163
tp164
a(S'TGCGTCTATTGGGAGAGG'
p165
S'TGCGCCTATTGGGAGAGG'
p166
tp167
a(g165
S'TGCGTCTATTTGGAGAGG'
p168
tp169
a(g32
g34
tp170
a(S'CACAATCCGACCCTCGGC'
p171
S'CACAATCCGACCCTTGGC'
p172
tp173
a(S'AGCGCGGAGAATGACCCG'
p174
S'AGCGTGGAGAATGACCCG'
p175
tp176
a(S'CTATGAGGCAGATAATGC'
p177
S'CTATGAGGTAGATAATGC'
p178
tp179
a(S'GGTACTTTAACGGACAGG'
p180
S'GGCACTTTAACGGACAGG'
p181
tp182
a(S'GCTTATGGGGTTTCTGCG'
p183
S'GTTTATGGGGTTTCTGCG'
p184
tp185
a(S'GTCGCTGCATGCGCCGTT'
p186
S'GTCGCTGCATGTGCCGTT'
p187
tp188
a(S'CGTAGGGTAGAGTGTACA'
p189
S'CGTATGGTAGAGTGTACA'
p190
tp191
a(S'GGGGCTGGAGAGCTAACC'
p192
S'TGGGCTGGAGAGCTAACC'
p193
tp194
a(g192
S'GGGGCTGGAGCGCTAACC'
p195
tp196
a(S'TGTAGGGTTAGAGGTGCA'
p197
S'TGTAGGGTTAGAGGCGCA'
p198
tp199
a(S'CGCCAAACTTAAAAGACA'
p200
S'CGCAAAACTTAAAAGACA'
p201
tp202
a(S'ATTAGGCCATCAGATTGC'
p203
S'ATTGGGCCATCAGATTGC'
p204
tp205
a(S'TGATGGCGGTGCGGTTAG'
p206
S'TGATGGTGGTGCGGTTAG'
p207
tp208
a(S'CAGGCAAGTGAAGAGACC'
p209
S'CAGGAAAGTGAAGAGACC'
p210
tp211
a(g209
S'CAGGTAAGTGAAGAGACC'
p212
tp213
a(S'AACCAGGTGTGCGAGGTC'
p214
S'AACCAGGCGTGCGAGGTC'
p215
tp216
a(S'AACCAAACATTTCGCGCG'
p217
S'AACCAAACATTTCGCGCT'
p218
tp219
a(S'GAAGTGATGCCACGCCCA'
p220
S'GAAGCGATGCCACGCCCA'
p221
tp222
a(S'GGTCTAACTCTTCCCGAT'
p223
S'GGTCTAACTCCTCCCGAT'
p224
tp225
a(S'GCGGAATGGCGGGTTGTG'
p226
S'GCGGAATGGCGGGCTGTG'
p227
tp228
a(S'TTGGGTAAACTTTCCTCA'
p229
S'TTTGGTAAACTTTCCTCA'
p230
tp231
a(S'ACCGAACACAAGTGATTA'
p232
S'ACCGAACACAAGCGATTA'
p233
tp234
a(S'TGCGCTTGCTCGAAACAG'
p235
S'TGCGTTTGCTCGAAACAG'
p236
tp237
a(S'CGGGCTTGTAGTTATCGT'
p238
S'CGGGATTGTAGTTATCGT'
p239
tp240
a(S'ATAAAAATGACCAGCTTC'
p241
S'ATAAAAATGCCCAGCTTC'
p242
tp243
a(S'GGGGGGGGGGCCGACCGT'
p244
S'GGGGGGGGGTCCGACCGT'
p245
tp246
a(S'AAGTTAGGCGCGCAGACG'
p247
S'AAGCTAGGCGCGCAGACG'
p248
tp249
a(S'GGTGGGGGGTGGACGCCG'
p250
S'GGTGGGGGGCGGACGCCG'
p251
tp252
a(g250
S'GGCGGGGGGTGGACGCCG'
p253
tp254
a(g250
S'GGAGGGGGGTGGACGCCG'
p255
tp256
a(S'GGGCGTGTTAGGCGGGCG'
p257
S'GGGCGTGTTAGGCGGGTG'
p258
tp259
a(S'ACCTTCAGCGTCACTACG'
p260
S'ACCTTCAGCGTCACTACT'
p261
tp262
a(S'CCTAATCGTGGTTGAACG'
p263
S'CCTAATCGTGGCTGAACG'
p264
tp265
a(S'GCCCAAGGTGAGGTAGGG'
p266
S'GCCCAAGGTGAGGCAGGG'
p267
tp268
a(g266
S'GCCCAAGGCGAGGTAGGG'
p269
tp270
a(S'TCGCATTTTGTCAGATTA'
p271
S'TCGTATTTTGTCAGATTA'
p272
tp273
a(S'TCGCGTTACACCATAAAG'
p274
S'TTGCGTTACACCATAAAG'
p275
tp276
a(S'TCAGGAGGCATAATAAAA'
p277
S'TCAGGAGGTATAATAAAA'
p278
tp279
a(S'CACTGAAGTGCGTTCATG'
p280
S'CACTGAAGCGCGTTCATG'
p281
tp282
a(S'CTTCGCTCATACTATAGG'
p283
S'CTTCGCTCATACTATATG'
p284
tp285
a(S'TTTGTATAAAATGCGATC'
p286
S'TTTGTATAAAATGTGATC'
p287
tp288
a(S'GGTCAGTTGAATTAACAA'
p289
S'GGCCAGTTGAATTAACAA'
p290
tp291
a(S'GCGGGACCGTGGCGCCCC'
p292
S'GTGGGACCGTGGCGCCCC'
p293
tp294
a(S'ATCATCTGTCTCATTGCG'
p295
S'ATCATCTGTCTCATTGTG'
p296
tp297
a(S'TACCCCGGATACAACTCT'
p298
S'TAGCCCGGATACAACTCT'
p299
tp300
a(S'AACGCGTGGCTCTAACCA'
p301
S'AACGAGTGGCTCTAACCA'
p302
tp303
a(S'TCATAAGGGGAAGGATTA'
p304
S'TCATCAGGGGAAGGATTA'
p305
tp306
a(S'TCCTCTGATTCCCAATAT'
p307
S'TCCTATGATTCCCAATAT'
p308
tp309
a(S'GAAGCGTCAAACAGACAT'
p310
S'GAAGTGTCAAACAGACAT'
p311
tp312
a(S'CGGGCGGGCGACGTAACC'
p313
S'CGGGTGGGCGACGTAACC'
p314
tp315
a(g313
S'CGGGAGGGCGACGTAACC'
p316
tp317
a(S'AGATCGAGCGAGTTGGTA'
p318
S'AGATCGTGCGAGTTGGTA'
p319
tp320
a(S'CCTAAAACGCTTCTTAAG'
p321
S'ACTAAAACGCTTCTTAAG'
p322
tp323
a(S'AGTGAACCCGGCGGTACC'
p324
S'AGTGAAGCCGGCGGTACC'
p325
tp326
a(S'GAGACTATTACTTGTATG'
p327
S'GAGACTATTACTTGCATG'
p328
tp329
a(S'CAGCAAACGTTTAATAGC'
p330
S'CAGCAAACGTTCAATAGC'
p331
tp332
a(S'ATTGCCCTTAAACTATTG'
p333
S'ATTGTCCTTAAACTATTG'
p334
tp335
a(S'CTACGGTCGTCGAAGTCC'
p336
S'CTACGGTCGTCGAAGCCC'
p337
tp338
a(S'TTCGTAGAGTATCCGATA'
p339
S'TTCGTAGAGTATCCGCTA'
p340
tp341
a(S'AGGGCTTTTACCCCTTTG'
p342
S'AGGGATTTTACCCCTTTG'
p343
tp344
a(g342
S'AGGGTTTTTACCCCTTTG'
p345
tp346
a(S'GCTGCGAACTGCACCACG'
p347
S'GCTGTGAACTGCACCACG'
p348
tp349
a(S'TTCTTCATTGGTTTAATG'
p350
S'TTCTTCATTGGTTTAATT'
p351
tp352
a(S'CTGGCGATTACGCGAACC'
p353
S'CTGGTGATTACGCGAACC'
p354
tp355
a(S'CTTCGGCTAAAACGCAAA'
p356
S'CTTCGGCTACAACGCAAA'
p357
tp358
a(S'TGACACTCCACTAATGGT'
p359
S'TGACACTCCACTAAGGGT'
p360
tp361
a(S'TCATCCCTGGTCATGTTT'
p362
S'TCATCCCTGGTCATGCTT'
p363
tp364
a(g362
S'TCATACCTGGTCATGTTT'
p365
tp366
a(S'GGACGAACATGAGTGATT'
p367
S'GGACGAACATGAGCGATT'
p368
tp369
a(S'ATGGCTTTGTGCAGGTAG'
p370
S'ATGGTTTTGTGCAGGTAG'
p371
tp372
a(S'ACCGATGGATTGAGTCCT'
p373
S'ACCGCTGGATTGAGTCCT'
p374
tp375
a(S'GCCTAGGACTACAAGTAG'
p376
S'GCCTCGGACTACAAGTAG'
p377
tp378
a(S'TGACGGGGCGCCTAGCTA'
p379
S'TGACGGGGTGCCTAGCTA'
p380
tp381
a(S'GGTAGGGGGTACCATGGC'
p382
S'GGCAGGGGGTACCATGGC'
p383
tp384
a(S'AATGGGCAATCGGGAATG'
p385
S'TATGGGCAATCGGGAATG'
p386
tp387
a(S'TGTCGACCCGTCCGCTAT'
p388
S'TGTCGACGCGTCCGCTAT'
p389
tp390
a(S'ATAGGAAAGAGGTATGTT'
p391
S'ATAGGAAAGCGGTATGTT'
p392
tp393
a(g391
S'ATAGGAAAGTGGTATGTT'
p394
tp395
a(S'GCAGTGGAAGCCATAACG'
p396
S'GCAGCGGAAGCCATAACG'
p397
tp398
a(S'ATAGCACCGCTATAACTT'
p399
S'ATAGTACCGCTATAACTT'
p400
tp401
a(S'TCCACGGTGGGCGGGAGG'
p402
S'TCCACGGCGGGCGGGAGG'
p403
tp404
a(S'ACCGTCCGACTCCGCACA'
p405
S'ACCGCCCGACTCCGCACA'
p406
tp407
a(S'AGCGTGCGCAGCGCTAGT'
p408
S'AGCGTGCGCAGCGCTAGG'
p409
tp410
a(S'ACTATGTCCAGTCTCCCC'
p411
S'ACTATGTCCAGGCTCCCC'
p412
tp413
a(S'AAGGTGGGATAGGGAAGC'
p414
S'AAGGCGGGATAGGGAAGC'
p415
tp416
a(g414
S'AAGGAGGGATAGGGAAGC'
p417
tp418
a(S'ATGGGGGAGGAGTTGTCG'
p419
S'ATGGGGGAGGAGCTGTCG'
p420
tp421
a(g419
S'ATGGGGGAGGAGTTGCCG'
p422
tp423
a(g419
S'ATGGGGGAGGCGTTGTCG'
p424
tp425
a(g419
S'ATGGGGGCGGAGTTGTCG'
p426
tp427
a(S'CCGGCTAGGGCACAGGGG'
p428
S'CCGGCTAGGGTACAGGGG'
p429
tp430
a(S'GACGTATACTGCAAATCA'
p431
S'GACGCATACTGCAAATCA'
p432
tp433
a(S'TTAGAACCCCCTCAACGC'
p434
S'TTGGAACCCCCTCAACGC'
p435
tp436
a(S'CACACGATTGGCAAGCTA'
p437
S'CACAAGATTGGCAAGCTA'
p438
tp439
a(S'GACTACTGTAGGCAAATA'
p440
S'GACTACTGTAGGTAAATA'
p441
tp442
a(S'TGTGTGGGCTGTGAGCGG'
p443
S'TGTGCGGGCTGTGAGCGG'
p444
tp445
a(S'CCAGTAACAAACTATGTC'
p446
S'CCAGCAACAAACTATGTC'
p447
tp448
a(S'ACAGGCTTGGGCGAACAA'
p449
S'ACAGGCTTGGGTGAACAA'
p450
tp451
a(S'GACACACTGAAATCGAAA'
p452
S'GACAAACTGAAATCGAAA'
p453
tp454
a(S'GAGGCGAGAAGAAAGAAT'
p455
S'GAGGTGAGAAGAAAGAAT'
p456
tp457
a(S'CATATGGTGTAGCAAATA'
p458
S'CATATGGCGTAGCAAATA'
p459
tp460
a(S'TAAGTGCAGTTTTCTCTC'
p461
S'TAAGCGCAGTTTTCTCTC'
p462
tp463
a(S'CTTGAACTATTTTCGACG'
p464
S'CTTAAACTATTTTCGACG'
p465
tp466
a(S'TTAGCTGAGGGTGTGGTC'
p467
S'TTAGTTGAGGGTGTGGTC'
p468
tp469
a(S'TGCAATCTCAAGAGGATT'
p470
S'TGCACTCTCAAGAGGATT'
p471
tp472
a(S'AGGCGTTGATGCGTAATA'
p473
S'AGGTGTTGATGCGTAATA'
p474
tp475
a(S'CATGCTTTTTACATTCCG'
p476
S'CATGATTTTTACATTCCG'
p477
tp478
a(S'TGCGATCCACTCAAATAT'
p479
S'TGTGATCCACTCAAATAT'
p480
tp481
a(S'AGGGATCTAGGGCGGAAG'
p482
S'AGGGCTCTAGGGCGGAAG'
p483
tp484
a(S'AGGATATGTGGCGGGGGT'
p485
S'AGGATATGTGGCGGGGGG'
p486
tp487
a(S'TCAGTGTGCGGGGGCAGA'
p488
S'TCGGTGTGCGGGGGCAGA'
p489
tp490
a(S'ACGGCGTTGAATTGTGGA'
p491
S'ACGGAGTTGAATTGTGGA'
p492
tp493
a(S'AGTGTGTCAGCAGGCCAA'
p494
S'AGCGTGTCAGCAGGCCAA'
p495
tp496
a(S'TTGGGCGTATGACGGGAA'
p497
S'TTGTGCGTATGACGGGAA'
p498
tp499
a(S'AAAGGGGGAGGTAATGGT'
p500
S'AAAGGGGGAGGTAATGGC'
p501
tp502
a(S'GAAGGCGGGGTGGCTCAA'
p503
S'GAAGGCGGGGCGGCTCAA'
p504
tp505
a(S'AAGTTTAAGGGAAGAGGG'
p506
S'AAGTTTAAGGGTAGAGGG'
p507
tp508
a(S'GCTATCAGAGCGCGCGAG'
p509
S'GATATCAGAGCGCGCGAG'
p510
tp511
a(S'CCTGCAGCTCCCAAGCGG'
p512
S'CCTGCAGCTCCCAAGTGG'
p513
tp514
a(S'AGGCCGTACTTGATTAAT'
p515
S'AGGTCGTACTTGATTAAT'
p516
tp517
a(S'CGTATTCTTTACAATACT'
p518
S'CGCATTCTTTACAATACT'
p519
tp520
a(g518
S'CGAATTCTTTACAATACT'
p521
tp522
a(S'GGCCCCCATGAGCGTATA'
p523
S'GGCCCCTATGAGCGTATA'
p524
tp525
a(S'TTTTCATGTTTTTCTCGA'
p526
S'TTTTCATGCTTTTCTCGA'
p527
tp528
a(S'GATACCGAAGATCCTAGT'
p529
S'GATACCGAAGCTCCTAGT'
p530
tp531
a(S'TACGAGCAGCAACCACCA'
p532
S'TACGCGCAGCAACCACCA'
p533
tp534
a(S'GAATTGCAGGTGTGTAGG'
p535
S'GAATTGCAGGCGTGTAGG'
p536
tp537
a(S'AGGGGCGGGAACGGAGCG'
p538
S'AGGGGCGGGAAAGGAGCG'
p539
tp540
a(S'AGAGGAGTACGCCAACAG'
p541
S'AGAGGAGTACGCCAATAG'
p542
tp543
a(S'TGTTCCGACTAGGCGCGG'
p544
S'TGTTCCGACTAGGTGCGG'
p545
tp546
a(S'ACTCTGATCTCACAGTTA'
p547
S'ACTCTGATCTCACAGTTG'
p548
tp549
a(S'CGTAATAGCAGCATCCAC'
p550
S'CGTACTAGCAGCATCCAC'
p551
tp552
a(S'CCTCCGAAAATCTCGCGC'
p553
S'ACTCCGAAAATCTCGCGC'
p554
tp555
a(S'TAGATTGCAGCAGGCTGA'
p556
S'TAGATTGCAGCCGGCTGA'
p557
tp558
a(S'AACATAGCGTACGCTATG'
p559
S'AACATAACGTACGCTATG'
p560
tp561
a(S'CATATCCCGGAAAGCGAC'
p562
S'CATATCTCGGAAAGCGAC'
p563
tp564
a(S'GTACACGAGGTTGTTGAG'
p565
S'GTACACGAGGCTGTTGAG'
p566
tp567
a(S'GGGCTGGATTAACCGTGA'
p568
S'GGGTTGGATTAACCGTGA'
p569
tp570
a(g568
S'GGGATGGATTAACCGTGA'
p571
tp572
a(S'CTAGAGGGGACGAGATTT'
p573
S'CTAGTGGGGACGAGATTT'
p574
tp575
a(S'AATTCGATCGGGGTGACC'
p576
S'AATTAGATCGGGGTGACC'
p577
tp578
a(S'ATAAGCCGAACACAGATC'
p579
S'ATAAGTCGAACACAGATC'
p580
tp581
a(S'GGGAGGGGCTGAGGGAGG'
p582
S'GGGAGGGGATGAGGGAGG'
p583
tp584
a(S'GGGGGACTGGTACCGGGG'
p585
S'GGGGGACTGGTACCAGGG'
p586
tp587
a(S'GGCCGTCCACATGGCATA'
p588
S'GGCCGTCCACATGGTATA'
p589
tp590
a(S'TGGGGCGCCTGGTAGAAG'
p591
S'TGGGGTGCCTGGTAGAAG'
p592
tp593
a(S'GCGGGGTGGGGTCGGATG'
p594
S'GCGGGGCGGGGTCGGATG'
p595
tp596
a(S'GAAGACCTGGGGTGGATT'
p597
S'GAAGACCTGGGGTGGATG'
p598
tp599
a(g598
S'GAAGACCTGGGGCGGATG'
p600
tp601
a(S'CGGTGATTTAGCCCGATT'
p602
S'CGGCGATTTAGCCCGATT'
p603
tp604
a(S'CGGTATAGTGTTTGCAAG'
p605
S'CGGCATAGTGTTTGCAAG'
p606
tp607
a(S'AGGGACAGGGGGCTAAAG'
p608
S'AGGGCCAGGGGGCTAAAG'
p609
tp610
a(S'CAACCGAGGCTTTTGACC'
p611
S'CAACCGAGGTTTTTGACC'
p612
tp613
a(S'CATTCGGCTACGCAATAA'
p614
S'CATTCGGCTACGTAATAA'
p615
tp616
a(S'ACACGGGCATTTTGCAAG'
p617
S'ACACGGGTATTTTGCAAG'
p618
tp619
a(S'CTGCTCTAAAACGCATTA'
p620
S'CTGCTCTAAAACGTATTA'
p621
tp622
a(g620
S'CTGCTCTAAAACGAATTA'
p623
tp624
a(S'ACAGACAGTCCGAGGGTG'
p625
S'ACAGACAGTCCGAGGGCG'
p626
tp627
a(S'CAGCACCACAAATAAGCG'
p628
S'CAGTACCACAAATAAGCG'
p629
tp630
a(S'TATACTCTTCCCTCAAGG'
p631
S'TATAATCTTCCCTCAAGG'
p632
tp633
a(S'TTTGTCTAGCACCTGCCG'
p634
S'TTTGTCTAGAACCTGCCG'
p635
tp636
a(S'GGGTGTTAGATTGTTATA'
p637
S'GGGAGTTAGATTGTTATA'
p638
tp639
a(g637
S'GGGCGTTAGATTGTTATA'
p640
tp641
a(S'TAATCACCCGGTGAGACA'
p642
S'TAATAACCCGGTGAGACA'
p643
tp644
a(S'GGCGCTCCAGGCGGGAAG'
p645
S'GGCGCTTCAGGCGGGAAG'
p646
tp647
a(S'CGGGTCTTTAGGTCGGAC'
p648
S'CGGGCCTTTAGGTCGGAC'
p649
tp650
a(S'GACAGAGGTGAATCAGTG'
p651
S'GACAGAGGCGAATCAGTG'
p652
tp653
a(g651
S'TACAGAGGTGAATCAGTG'
p654
tp655
a(S'AACCCACCGACGCCACAG'
p656
S'AACCCACCGACGCCACAT'
p657
tp658
a(S'GTGGATAGGGCGAGAGAG'
p659
S'GTGGATAGGGTGAGAGAG'
p660
tp661
a(S'TATATGTGAGCACCGGCG'
p662
S'TATATGTGAGCACCGGTG'
p663
tp664
a(S'TTTTGATAGGGCGGGCAA'
p665
S'TTTTGATAGGGTGGGCAA'
p666
tp667
a(S'TCAGGGGTCGATATTCCT'
p668
S'TCAGGGGTCGATATTCCG'
p669
tp670
a(S'ATTGGTGGTCGGGGGCGC'
p671
S'ATTGGCGGTCGGGGGCGC'
p672
tp673
a(S'GCGGCTGGGGGGCGGTGG'
p674
S'GCGGATGGGGGGCGGTGG'
p675
tp676
a(S'GTTATGTACTAGGGAATT'
p677
S'GTTATGTACTAGGGTATT'
p678
tp679
a(g677
S'GTTATGTACTAGGGCATT'
p680
tp681
a(S'TGGCGCCATGGGCACGTG'
p682
S'GGGCGCCATGGGCACGTG'
p683
tp684
a(S'CGGGCGACGGGTTGGATT'
p685
S'CGGGTGACGGGTTGGATT'
p686
tp687
a(S'CCGAGCAAGGGCAGGACA'
p688
S'CCGAGCAAGGGTAGGACA'
p689
tp690
a(S'AGTGTAAATGACAATGAC'
p691
S'CGTGTAAATGACAATGAC'
p692
tp693
a(S'TATAATCACTATAAAAGC'
p694
S'TAGAATCACTATAAAAGC'
p695
tp696
a(S'TTACGTACAAGCTATAAA'
p697
S'TTACGTACAAGTTATAAA'
p698
tp699
a(S'ATTATTGCGAAGGATATT'
p700
S'ATTATTGTGAAGGATATT'
p701
tp702
a(S'ACGCAAGGTGTTTTTTTA'
p703
S'ACGCAAGGCGTTTTTTTA'
p704
tp705
a(S'AAGGTGGAGTACAGAAAC'
p706
S'AAGGCGGAGTACAGAAAC'
p707
tp708
a(S'TTAGATGTCACGGCGATG'
p709
S'TTAGCTGTCACGGCGATG'
p710
tp711
a(S'GACGGGTTTTGCTTATTT'
p712
S'GACGGGCTTTGCTTATTT'
p713
tp714
a(S'GTGGTCGGTAGTTTACTG'
p715
S'GTGGCCGGTAGTTTACTG'
p716
tp717
a(S'CATGACTCAATATCGACT'
p718
S'CATGTCTCAATATCGACT'
p719
tp720
a(S'TGGTGTCTCATACGGCCA'
p721
S'TGGCGTCTCATACGGCCA'
p722
tp723
a(S'GAAACGTGATGTTGGCTT'
p724
S'TAAACGTGATGTTGGCTT'
p725
tp726
a(S'CAAGAGTTCGGCGGGTCA'
p727
S'CAAGAGTTCGGCGGGTCC'
p728
tp729
a(g727
S'CAAGAGTTCGGCGGGGCA'
p730
tp731
a(S'AAGAGGCATGAAACTTTC'
p732
S'AAGAGGAATGAAACTTTC'
p733
tp734
a(S'CTCCTAAGTGCTGCATCC'
p735
S'CTCCTAAGCGCTGCATCC'
p736
tp737
a(S'CACTCTGCTCCACTACAC'
p738
S'AACTCTGCTCCACTACAC'
p739
tp740
a(S'GCGAAGGTAGTCTATAAT'
p741
S'GCGAAGGTAGTCTATAAG'
p742
tp743
a(S'CAACCTTTGTTTGTTGAG'
p744
S'CAACATTTGTTTGTTGAG'
p745
tp746
a(S'GGGTGCGGGATAAAAGTA'
p747
S'GGGCGCGGGATAAAAGTA'
p748
tp749
a(g747
S'GGGTGCGGGATAAAAGCA'
p750
tp751
a(g747
S'GGGAGCGGGATAAAAGTA'
p752
tp753
a(S'AAGGGGTTTGTGATAGCT'
p754
S'AAGGGGCTTGTGATAGCT'
p755
tp756
a(S'ACAGAGGGGGTGAATTGA'
p757
S'ACAGCGGGGGTGAATTGA'
p758
tp759
a(S'GAAGTGATTTCAGTCATA'
p760
S'GAAGCGATTTCAGTCATA'
p761
tp762
a(S'TACGATCGAAGTCTACAT'
p763
S'TACGATCGACGTCTACAT'
p764
tp765
a(S'CAACTTGACAAGGCATAG'
p766
S'CAACTTGACAAGGTATAG'
p767
tp768
a(g766
S'CAACTTGACAAGGAATAG'
p769
tp770
a(S'ATCCGGTAGCAGGTAACG'
p771
S'ATCCGGTAGTAGGTAACG'
p772
tp773
a(S'CCTTACCTTGGTGTTGAA'
p774
S'CCTTACCTTGGCGTTGAA'
p775
tp776
a(S'GACGATCCAAGGGACTAA'
p777
S'GACGCTCCAAGGGACTAA'
p778
tp779
a(S'GTCCCGAGGACGGCGCAG'
p780
S'GTCCTGAGGACGGCGCAG'
p781
tp782
a(S'AGCGCGTGTCATATATAT'
p783
S'AGTGCGTGTCATATATAT'
p784
tp785
a(S'TGAAGTGGCGGGGCGGGG'
p786
S'TGAAGTGGCGGGCCGGGG'
p787
tp788
a(S'CATAGACCTTGAAAGCAT'
p789
S'CATAGACCTTGAAAGTAT'
p790
tp791
a(S'GGGGAGGGGGAAAAGCCA'
p792
S'GGGGCGGGGGAAAAGCCA'
p793
tp794
a(g792
S'GGGGTGGGGGAAAAGCCA'
p795
tp796
a(S'AGCTTATAACAGATCTCA'
p797
S'AGTTTATAACAGATCTCA'
p798
tp799
a(S'ATGGTTGGCCGGCGAGGA'
p800
S'ATGGTTGGCCGGTGAGGA'
p801
tp802
a(S'GGTGTGGTCGTGTTGTGC'
p803
S'GGTGCGGTCGTGTTGTGC'
p804
tp805
a(g803
S'GGAGTGGTCGTGTTGTGC'
p806
tp807
a(S'GGCGGATGGGAACTGGGA'
p808
S'GGTGGATGGGAACTGGGA'
p809
tp810
a(S'GGGGACAGGTGGTCGGAT'
p811
S'GGTGACAGGTGGTCGGAT'
p812
tp813
a(S'TGAAGTGTATGCAGTTAG'
p814
S'TGAAGCGTATGCAGTTAG'
p815
tp816
a(g492
S'ACGGAGTTGAATTGCGGA'
p817
tp818
a(S'TATAACAGGCATGTACAA'
p819
S'TATAACAGGTATGTACAA'
p820
tp821
a(S'ACCCGCAAATTACGCTCC'
p822
S'ACCCGCAAATTACGCCCC'
p823
tp824
a(S'TGTAAGGAGGTGTGGGAG'
p825
S'TGTAAGGTGGTGTGGGAG'
p826
tp827
a(g825
S'TGTAAGGCGGTGTGGGAG'
p828
tp829
a(S'TGAGAGGGAAGCGGGCGT'
p830
S'TGAGCGGGAAGCGGGCGT'
p831
tp832
a(S'GCGTTTAGGTCGTCGATT'
p833
S'GCGTTTAGGCCGTCGATT'
p834
tp835
a(S'GCAAGTTGCAAGCCCCAT'
p836
S'GCAAGTTGCAAGCCTCAT'
p837
tp838
a(S'ACGCTCGTGCCCAAGCGT'
p839
S'ACGCCCGTGCCCAAGCGT'
p840
tp841
a(S'TTGAGTGTTATTGGGCCG'
p842
S'TTGAGCGTTATTGGGCCG'
p843
tp844
a(S'TTCTGACCCGTATTCATG'
p845
S'TTCTTACCCGTATTCATG'
p846
tp847
a(S'GAAGTACCGTTCTGCTTA'
p848
S'GAAGCACCGTTCTGCTTA'
p849
tp850
a(S'TCACTCGTGACGTTCCGC'
p851
S'TCACTCGCGACGTTCCGC'
p852
tp853
a(S'TGACGTAGTGCGGGGGGG'
p854
S'TGACGTAGGGCGGGGGGG'
p855
tp856
a(S'AGCGAGTCTAGACTGTGA'
p857
S'AGCGCGTCTAGACTGTGA'
p858
tp859
a(S'ACCGACGCAAAGTCTGGT'
p860
S'ACCGACGCAAAGTCTGGG'
p861
tp862
a(S'AATAGGTATGTATGGTCC'
p863
S'AATAGGCATGTATGGTCC'
p864
tp865
a(S'TTGGCGGCTGGCATTTGG'
p866
S'TTGGTGGCTGGCATTTGG'
p867
tp868
a(g82
g84
tp869
a(S'ACTGGGCTTGTCGATCGA'
p870
S'ACTGGGATTGTCGATCGA'
p871
tp872
a(S'AGCAGAGTCAGACGTTTT'
p873
S'AGCAGAGCCAGACGTTTT'
p874
tp875
a(S'GAAAATTCTGCCTAATAG'
p876
S'GAAACTTCTGCCTAATAG'
p877
tp878
a(S'GGAATCTTGGTCGGGTGG'
p879
S'GGAATCTTGGCCGGGTGG'
p880
tp881
a(S'TTGTGTGCGGGGGGGTAC'
p882
S'TTGTGTGCGGGGGGGCAC'
p883
tp884
a(S'ATCGGGACTGGCATATAG'
p885
S'ATCGGGACTGGTATATAG'
p886
tp887
a(S'GGATGTTCACATGTTTGT'
p888
S'GGCTGTTCACATGTTTGT'
p889
tp890
a(S'ATCGCTCCCTCTTCCAAC'
p891
S'CTCGCTCCCTCTTCCAAC'
p892
tp893
a(S'GGTTCGCTTAATTACGGG'
p894
S'GGTTCGCTCAATTACGGG'
p895
tp896
a(S'CGGTTGATTGGCATTAGT'
p897
S'CGGCTGATTGGCATTAGT'
p898
tp899
a(S'GCATACATCGAGCGAATA'
p900
S'GCATACATTGAGCGAATA'
p901
tp902
a(S'CGGTGGCACTCGGACGGG'
p903
S'CGGTTGCACTCGGACGGG'
p904
tp905
a(S'AATGCGGCGGGGGGCGCG'
p906
S'AATGCGGCGGGGGTCGCG'
p907
tp908
a(S'AGGACGGCCCGGCGGGTT'
p909
S'AGGACGGCCCGGTGGGTT'
p910
tp911
a(S'GCCAGGGTGCCCGGGGGG'
p912
S'GCCAGGGCGCCCGGGGGG'
p913
tp914
a(S'TGCTATAAGCCATGCAGA'
p915
S'TGTTATAAGCCATGCAGA'
p916
tp917
a(S'TCTGCAGGGACGTATATA'
p918
S'TCTGTAGGGACGTATATA'
p919
tp920
a(S'AAGGACGTTTTTGAGACA'
p921
S'AAGGACGTTTTCGAGACA'
p922
tp923
a(S'CAGAGGCTTAGAAACCAA'
p924
S'CAGCGGCTTAGAAACCAA'
p925
tp926
a(S'TTAGTATTCTAATCTAGA'
p927
S'TTAGCATTCTAATCTAGA'
p928
tp929
a(S'CCAGTAGCGGCGTTTCAC'
p930
S'CCAGCAGCGGCGTTTCAC'
p931
tp932
a(S'TCATCCTGAGAGGTACAA'
p933
S'TCATCCTGAGAGGCACAA'
p934
tp935
a(S'GCGCGTCTCCGGAGGTAA'
p936
S'GCGCGTCTCCGGAGGCAA'
p937
tp938
a(S'AGTTTACCAAAGAGATTA'
p939
S'AGTTTACCCAAGAGATTA'
p940
tp941
a(S'GGGCCGTGGATGGGGGGC'
p942
S'GGGCAGTGGATGGGGGGC'
p943
tp944
a(S'CAGGCGACGCAAGTCACC'
p945
S'CAGGAGACGCAAGTCACC'
p946
tp947
a(g945
S'CAGGTGACGCAAGTCACC'
p948
tp949
a(S'TTTGACTCAACACAAACG'
p950
S'TTCGACTCAACACAAACG'
p951
tp952
a(S'CGAGTAGAGCGAGGGCAT'
p953
S'CGAGTAGAGCGAGGGTAT'
p954
tp955
a(S'TAGGGACTAGTCCTCTGC'
p956
S'TAGGGTCTAGTCCTCTGC'
p957
tp958
a(S'TGGCGGTCAGTTTGCCAC'
p959
S'TGGTGGTCAGTTTGCCAC'
p960
tp961
a(S'GCTGCCATAGAAGGCAAA'
p962
S'GCTGCCATAGAAGGAAAA'
p963
tp964
a(S'ATCTACTTTTGTAGGCAC'
p965
S'ATCTACTTTTGTAGGTAC'
p966
tp967
a(S'AGATTTAATTACGTCCAC'
p968
S'AGATTTAATTATGTCCAC'
p969
tp970
a(S'ACAGAAATAAGGTATCAT'
p971
S'ACAGAAATAAGGAATCAT'
p972
tp973
a(S'CCAACTATTGAATGCTCA'
p974
S'CCAAATATTGAATGCTCA'
p975
tp976
a(S'CCCGGTATTTGGGATAAT'
p977
S'CCCTGTATTTGGGATAAT'
p978
tp979
a(S'TGGGCATTAGGTCGTAGG'
p980
S'TGGGAATTAGGTCGTAGG'
p981
tp982
a(S'CGTCGTTAACGCACAGTT'
p983
S'CGCCGTTAACGCACAGTT'
p984
tp985
a(S'TGGGGTAGGGTGCGCAGG'
p986
S'TGGGGCAGGGTGCGCAGG'
p987
tp988
a(S'AAATCGTCGTTTTGTCAT'
p989
S'AAATCGTCGTTTTGTCAG'
p990
tp991
a(S'CCAGGCGGGTGTTCATCC'
p992
S'CCAGGCGGGTGTCCATCC'
p993
tp994
a(S'ACAAAAGAAAATTCGCCC'
p995
S'ACAAAAGCAAATTCGCCC'
p996
tp997
a(g995
S'ACAAAAGTAAATTCGCCC'
p998
tp999
a(S'TCACACGATTAGTACGTG'
p1000
S'TCACACGATTAGCACGTG'
p1001
tp1002
a(S'CGGGCATACGGCCGAGGA'
p1003
S'CGGGTATACGGCCGAGGA'
p1004
tp1005
a(S'GAGTATACTGAATAGCAG'
p1006
S'GAGCATACTGAATAGCAG'
p1007
tp1008
a(S'GGAAAGTACGCCCAACGA'
p1009
S'GGAAAGTACGTCCAACGA'
p1010
tp1011
a(S'TTGAAGACGTGCGAGTCC'
p1012
S'TTGCAGACGTGCGAGTCC'
p1013
tp1014
a(S'GCGTCGGGTGTCATGACG'
p1015
S'GCGTCGGGAGTCATGACG'
p1016
tp1017
a(g1015
S'GCGTCGGGCGTCATGACG'
p1018
tp1019
a(S'GGGAGGAGGTGTTATCGC'
p1020
S'GGGTGGAGGTGTTATCGC'
p1021
tp1022
a(S'CGAGGGTATTATTTTTCG'
p1023
S'CGAGGGCATTATTTTTCG'
p1024
tp1025
a(S'AGGGTTTCGCGGGAAGAG'
p1026
S'AGGGATTCGCGGGAAGAG'
p1027
tp1028
a(g1026
S'AGGGCTTCGCGGGAAGAG'
p1029
tp1030
a(g37
S'CCTGGGCATTTGGGGGGG'
p1031
tp1032
a(S'ACTTGATAGCTGACCGAA'
p1033
S'ACTTGATAGCTGACTGAA'
p1034
tp1035
a(S'AGAGAGCGGCGTCCGTGG'
p1036
S'AGAGAGCGGTGTCCGTGG'
p1037
tp1038
a(S'GACAGCAGAAAGGCATGT'
p1039
S'GACAGCAGAAAGGTATGT'
p1040
tp1041
a(S'AGAAATTTATCGTTACTG'
p1042
S'AGAAATTTATCGTTAATG'
p1043
tp1044
a(S'AGAAGGTTTCGTGTGTCC'
p1045
S'AGAAGGCTTCGTGTGTCC'
p1046
tp1047
a(S'TGGTGAGGTGGCCGATCC'
p1048
S'TGGAGAGGTGGCCGATCC'
p1049
tp1050
a(g1048
S'TGGCGAGGTGGCCGATCC'
p1051
tp1052
a(S'ACACCAGCCGGGACGTCA'
p1053
S'ACACCAGCCCGGACGTCA'
p1054
tp1055
a(S'TTCTTCAAGGCGGGGAAA'
p1056
S'TTCTTCAAGGCGGGGTAA'
p1057
tp1058
a(g1056
S'TTCTTCAAGGCGGGGCAA'
p1059
tp1060
a(g1056
S'TTCTTCAAGGCGGGGGAA'
p1061
tp1062
a(S'GCAGGAATTGGCCTAGTG'
p1063
S'GCAGTAATTGGCCTAGTG'
p1064
tp1065
a(S'AACGTGTAAACAATACCG'
p1066
S'AACGCGTAAACAATACCG'
p1067
tp1068
a(S'GGCTCCGAGAGTAAATGT'
p1069
S'GGCTACGAGAGTAAATGT'
p1070
tp1071
a(S'CTGCAAACAGAGCGACTA'
p1072
S'CTACAAACAGAGCGACTA'
p1073
tp1074
a(S'TTCACCCCCCAGTTTAAC'
p1075
S'TCCACCCCCCAGTTTAAC'
p1076
tp1077
a(S'GAGGGCGCGTAGGATGCG'
p1078
S'GAGGGTGCGTAGGATGCG'
p1079
tp1080
a(S'GCCCCTCTATGCTAGGGG'
p1081
S'GCCCCTCTATGTTAGGGG'
p1082
tp1083
a(S'GGAATGTACCGAACATTA'
p1084
S'GGAGTGTACCGAACATTA'
p1085
tp1086
a(S'TTAGGGCCCACCGAGGGG'
p1087
S'TCAGGGCCCACCGAGGGG'
p1088
tp1089
a(S'AACAAGCCTGCACTTTCT'
p1090
S'AACAAGCCCGCACTTTCT'
p1091
tp1092
a(S'ACGACATTGTTGACATAG'
p1093
S'CCGACATTGTTGACATAG'
p1094
tp1095
a(g1093
S'ACGAAATTGTTGACATAG'
p1096
tp1097
a(S'GATATAAAAACAGATCCC'
p1098
S'GATATAAAAACAGATCCG'
p1099
tp1100
a(S'GGGGTTTCACACGCTAGC'
p1101
S'GGGGCTTCACACGCTAGC'
p1102
tp1103
a(S'GGCAGAGATTGCTCACGG'
p1104
S'GGTAGAGATTGCTCACGG'
p1105
tp1106
a(S'TTAGTTGTACAGTATTAT'
p1107
S'TTAGCTGTACAGTATTAT'
p1108
tp1109
a(S'GCAGTTAATGATTACCCA'
p1110
S'GCCGTTAATGATTACCCA'
p1111
tp1112
a(S'TTCATTGCCAGCGTGGTA'
p1113
S'TTTATTGCCAGCGTGGTA'
p1114
tp1115
a(S'GATGCCGGGAAGAAAACT'
p1116
S'GATGTCGGGAAGAAAACT'
p1117
tp1118
a(S'GCGGCTGTCGAGGGGGGG'
p1119
S'GCGGATGTCGAGGGGGGG'
p1120
tp1121
a(S'CTACGCGCAGCAGGCCCT'
p1122
S'CTACGCGCAGTAGGCCCT'
p1123
tp1124
a(S'GTGGTTTCGTTGTCCTGT'
p1125
S'GGGGTTTCGTTGTCCTGT'
p1126
tp1127
a(S'ATTCCTGTTCAGACACAG'
p1128
S'ATTCATGTTCAGACACAG'
p1129
tp1130
a(S'GACACCGACAGTAGTGGA'
p1131
S'AACACCGACAGTAGTGGA'
p1132
tp1133
a(S'CAGGAAGGGCCGAACGCG'
p1134
S'CAGGAAGGGTCGAACGCG'
p1135
tp1136
a(S'CGGGCGCGAGAGGGTAGC'
p1137
S'CGGGTGCGAGAGGGTAGC'
p1138
tp1139
a(S'GCCTCTGGCGTATTCAAA'
p1140
S'GCCTCTGGTGTATTCAAA'
p1141
tp1142
a(S'TCACTCGCTTGACCAGGA'
p1143
S'TCACCCGCTTGACCAGGA'
p1144
tp1145
a(S'ATGGTTTTGCGCAGGTAG'
p1146
g371
tp1147
a(S'CGGGCTAATACGCCGACA'
p1148
S'CGGGATAATACGCCGACA'
p1149
tp1150
a(g1148
S'CGGGTTAATACGCCGACA'
p1151
tp1152
a(S'TTCAAGGCACACACGGTT'
p1153
S'TTCAAGGTACACACGGTT'
p1154
tp1155
a(S'CTAAGTAGATTGTATGGA'
p1156
S'CTAAGTAGATTGTAGGGA'
p1157
tp1158
a(S'CCAAAGTTACGTAGAACG'
p1159
S'CCAAAGTTCCGTAGAACG'
p1160
tp1161
a(S'AATCGGGCTGTTCAGGAC'
p1162
S'AACCGGGCTGTTCAGGAC'
p1163
tp1164
a(S'AATCCAGTTATTAACACT'
p1165
S'AATCCAGCTATTAACACT'
p1166
tp1167
a(S'TACAAATTGTGTATCCCG'
p1168
S'TACAAATTGTGTATCTCG'
p1169
tp1170
a(S'AGAATAGTCACAGGCCAT'
p1171
S'AGAATAGTCACAGGTCAT'
p1172
tp1173
a(S'TCTAGTTGTCAAGGGATT'
p1174
S'TCTAGTTGCCAAGGGATT'
p1175
tp1176
a(S'CTGTGGAATGTGGACACG'
p1177
S'CTGGGGAATGTGGACACG'
p1178
tp1179
a(S'TAAGGGCCGCGTAGGCAT'
p1180
S'TAATGGCCGCGTAGGCAT'
p1181
tp1182
a(S'AGCGTTATGCTTGGTGTG'
p1183
S'AGTGTTATGCTTGGTGTG'
p1184
tp1185
a(S'GCGGACCACTCACCAGAC'
p1186
S'GCGGCCCACTCACCAGAC'
p1187
tp1188
a(S'CCCTCAGTCGAATCGGGC'
p1189
S'TCCTCAGTCGAATCGGGC'
p1190
tp1191
a(S'GCCGGGCTTGATTCAAGA'
p1192
S'GCCGGGCTTGATTTAAGA'
p1193
tp1194
a(S'GTCCACCACACACTACAC'
p1195
S'GTCCCCCACACACTACAC'
p1196
tp1197
a(S'CGACCACTAGACTGCGGA'
p1198
S'CAACCACTAGACTGCGGA'
p1199
tp1200
a(g787
S'TGAAGTGGCGGGCCCGGG'
p1201
tp1202
a(S'GAGGGTAAGCGGGCTTCA'
p1203
S'GAGGGCAAGCGGGCTTCA'
p1204
tp1205
a(S'TTGGTGCGCAGGCCTCCT'
p1206
S'TTGGCGCGCAGGCCTCCT'
p1207
tp1208
a(S'AGGGCGGGGGAGAGCAGC'
p1209
S'AGGGCGTGGGAGAGCAGC'
p1210
tp1211
a(S'TCAAGGGTACCCTCATTC'
p1212
S'TCAAGGGTAACCTCATTC'
p1213
tp1214
a(g1212
S'TCAACGGTACCCTCATTC'
p1215
tp1216
a(S'ATAGCAATGATCCACGTG'
p1217
S'ATAGTAATGATCCACGTG'
p1218
tp1219
a(S'AGGGTTAGGGGGGCGGAG'
p1220
S'AGGGTTAGGGGGGCTGAG'
p1221
tp1222
a(g1220
S'AGGGATAGGGGGGCGGAG'
p1223
tp1224
a(g1220
S'AGGGCTAGGGGGGCGGAG'
p1225
tp1226
a(S'GCCACGGGGGGGGGGGGC'
p1227
S'GCCACGGGGGGGGGGGGG'
p1228
tp1229
a(S'CGGGCACCGTACAGCGAC'
p1230
S'CGGGTACCGTACAGCGAC'
p1231
tp1232
a(S'GACTGTGCAAGCGTTGCT'
p1233
S'GACTGAGCAAGCGTTGCT'
p1234
tp1235
a(S'AGTTTGGTAGGCGTTACC'
p1236
S'AGTTTGGTAGGTGTTACC'
p1237
tp1238
a(S'GCCGGTGGAGCACGAGGG'
p1239
S'GCCGGCGGAGCACGAGGG'
p1240
tp1241
a(S'GTGTGTCGAGGCGGGCAC'
p1242
S'GTGTGTCGAGGCGGGCCC'
p1243
tp1244
a(S'GGGGACGGGCTTGGCGCG'
p1245
S'GGGGACGGGTTTGGCGCG'
p1246
tp1247
a(S'TTAGCGTAATGGCGCAGC'
p1248
S'TTAGCGTAATGGTGCAGC'
p1249
tp1250
a(S'GGCCTTGTCCTAGTATGA'
p1251
S'GGCCTTGTCTTAGTATGA'
p1252
tp1253
a(S'TGCGCATAATTCTAAACT'
p1254
S'TGCGAATAATTCTAAACT'
p1255
tp1256
a(S'TAACGGCCCGGCAAGCGG'
p1257
S'TAACGGCCCGGCAAACGG'
p1258
tp1259
a(g1257
S'TAACGGCCCGGCCAGCGG'
p1260
tp1261
a(S'GAGCCGCATCGGTGTACG'
p1262
S'GAGTCGCATCGGTGTACG'
p1263
tp1264
a(S'GTGTCTTCCCATAGGTCG'
p1265
S'GGGTCTTCCCATAGGTCG'
p1266
tp1267
a(S'GGCAAGTGTAGGAGCGTT'
p1268
S'GGTAAGTGTAGGAGCGTT'
p1269
tp1270
a(S'TGAGCAGCTGGTCCGCGC'
p1271
S'TGAGAAGCTGGTCCGCGC'
p1272
tp1273
a(g1271
S'TGAGTAGCTGGTCCGCGC'
p1274
tp1275
a(S'TAAGGCTATTGCGGGTGG'
p1276
S'TAAGGTTATTGCGGGTGG'
p1277
tp1278
a(S'AGGGGTAGGCGGTTGTAA'
p1279
S'AGGGGAAGGCGGTTGTAA'
p1280
tp1281
a(S'TCAGAATCAATTTCGCTA'
p1282
S'TCAGAATCAATTTCGCGA'
p1283
tp1284
a(S'GGGCTGGTCTCATGCATA'
p1285
S'GGGCTGGTCTCATGCACA'
p1286
tp1287
a(g1285
S'GGGCTGGCCTCATGCATA'
p1288
tp1289
a(S'ACTTCCCGACCCATCCCC'
p1290
S'CCTTCCCGACCCATCCCC'
p1291
tp1292
a(S'ATGCGAACGCCGAGCCGT'
p1293
S'ATGTGAACGCCGAGCCGT'
p1294
tp1295
a(S'AGATCATACAGCAGGGGG'
p1296
S'AGATCATACAGCAGTGGG'
p1297
tp1298
a(S'ACAGAAGCACCGGTAAGG'
p1299
S'ACAGAAGCACCGGCAAGG'
p1300
tp1301
a(S'GGAACTGGTACATGTAGA'
p1302
S'GGAACTGGTACACGTAGA'
p1303
tp1304
a(S'CTCCTCGGCACGGATTGG'
p1305
S'CTCCTCGGCACGGATCGG'
p1306
tp1307
a(S'CAAGATGGCGTCTAGACG'
p1308
S'CAAGATGGTGTCTAGACG'
p1309
tp1310
a(S'TTGGCGCCTAGGGTACGC'
p1311
S'TTGGTGCCTAGGGTACGC'
p1312
tp1313
a(S'GAAGCGTCTATCACTCAC'
p1314
S'GAAGAGTCTATCACTCAC'
p1315
tp1316
a(S'GGGCGCCGGCGCCTGCTC'
p1317
S'GGGTGCCGGCGCCTGCTC'
p1318
tp1319
a(S'TCGATGGGGATCTGGCCA'
p1320
S'TCGATGGGGATCGGGCCA'
p1321
tp1322
a(S'TTTGACCGGGTGGTTACG'
p1323
S'TTTGACCGGGTGGTTAAG'
p1324
tp1325
a(S'AGGAGATTAGGGGTATGT'
p1326
S'AGGCGATTAGGGGTATGT'
p1327
tp1328
a(S'CCGGTGGAAATCACTTTT'
p1329
S'CCGGCGGAAATCACTTTT'
p1330
tp1331
a(S'TGAATGCGGCGGGTCCCT'
p1332
S'TGAATGCGGCGGGTCCAT'
p1333
tp1334
a(S'ATGGCGGTGTCTGTGTTA'
p1335
S'ATGGCGGCGTCTGTGTTA'
p1336
tp1337
a(S'ACTGCTAGGAAAAGAGGT'
p1338
S'ACTGCTAGGAAAAGTGGT'
p1339
tp1340
a(g1338
S'ACTGCTAGGAAAAGCGGT'
p1341
tp1342
a(S'TCAAGAACTGAAAAATGC'
p1343
S'TCAAGAACCGAAAAATGC'
p1344
tp1345
a(S'CGCGCACCGAAAAGGCAG'
p1346
S'CGCGCACCGAAAAGGTAG'
p1347
tp1348
a(S'CACCAACCACTAACGCCA'
p1349
S'CACCCACCACTAACGCCA'
p1350
tp1351
a(S'TATAGGGTGCACCTTGGG'
p1352
S'TATAGGGCGCACCTTGGG'
p1353
tp1354
a(S'TACCCTAGCCCAGGCAAT'
p1355
S'TACCCTAGCCCAGGTAAT'
p1356
tp1357
a(S'GTTTGTCCATGGATCTAG'
p1358
S'GTTTGTCCATGGATCTAT'
p1359
tp1360
a(S'TAAGTGGAAAGGTGTGCC'
p1361
S'TAAGCGGAAAGGTGTGCC'
p1362
tp1363
a(g1361
S'TAAGTGGAAAGGCGTGCC'
p1364
tp1365
a(S'TCTCGGGGCGAGGGGGTG'
p1366
S'TCTCGGGGTGAGGGGGTG'
p1367
tp1368
a(S'TTCGTGCACGTTATTTCC'
p1369
S'TTCGCGCACGTTATTTCC'
p1370
tp1371
a(S'ACCCCTGGCAATCTGGAA'
p1372
S'TCCCCTGGCAATCTGGAA'
p1373
tp1374
a(S'AAATTTTCGGCAATGGTA'
p1375
S'AAATTTTCGGTAATGGTA'
p1376
tp1377
a(S'CGCCATGATTAGTACTGT'
p1378
S'CGCCATGCTTAGTACTGT'
p1379
tp1380
a(S'GGCTCGGGCTTCACTATG'
p1381
S'GGCCCGGGCTTCACTATG'
p1382
tp1383
a(S'AGGCTACAAGGTCAGGGA'
p1384
S'AGGCTACAAGGCCAGGGA'
p1385
tp1386
a(S'AAGGGGGGCGTATGATTC'
p1387
S'AAGGGGGGTGTATGATTC'
p1388
tp1389
a(S'CACGACGGGTGCGACCAT'
p1390
S'CACGACGGGCGCGACCAT'
p1391
tp1392
a(S'TAATTTTGTGGGCCACGA'
p1393
S'TAATTTTGCGGGCCACGA'
p1394
tp1395
a(S'GACGTATAGATAACAATG'
p1396
S'GACGTATAGATAACAAGG'
p1397
tp1398
a(S'ATGGCGGTCACCTTGCAT'
p1399
S'ATGGAGGTCACCTTGCAT'
p1400
tp1401
a(S'GCAGCACATTTCTGCCGC'
p1402
S'GCAGCACATTTCCGCCGC'
p1403
tp1404
a(S'TAAAGTATGAATTAGCGG'
p1405
S'TAAAGCATGAATTAGCGG'
p1406
tp1407
a(S'TGGTTATCGGGGGCACGC'
p1408
S'TGGCTATCGGGGGCACGC'
p1409
tp1410
a(g253
g255
tp1411
a(g1272
g1274
tp1412
a(S'GGGGAGATCTACACTTCG'
p1413
S'GGGGCGATCTACACTTCG'
p1414
tp1415
a(S'AGAGGCGGATACCACATT'
p1416
S'AGAGGTGGATACCACATT'
p1417
tp1418
a(S'GGGTAGCCAATGTCTGGT'
p1419
S'GGGCAGCCAATGTCTGGT'
p1420
tp1421
a(S'GTGGCGGAGGTACCATGG'
p1422
S'GTGGCGGAGGCACCATGG'
p1423
tp1424
a(S'GGGGTGGCGATTACGGTG'
p1425
S'GGGGCGGCGATTACGGTG'
p1426
tp1427
a(g1425
S'GGGGAGGCGATTACGGTG'
p1428
tp1429
a(S'CCTGAGGCCCTAGGTAGA'
p1430
S'CCCGAGGCCCTAGGTAGA'
p1431
tp1432
a(S'CATGGTATTGGGGAAGGC'
p1433
S'CATGGCATTGGGGAAGGC'
p1434
tp1435
a(S'TTCGTTTGCAACCGTACG'
p1436
S'TTCGCTTGCAACCGTACG'
p1437
tp1438
a(S'TAAGCACACTTGATGCGC'
p1439
S'TAAGTACACTTGATGCGC'
p1440
tp1441
a(S'CATCGCGCAAATCATGAA'
p1442
S'CATCGCGCAAATCATGCA'
p1443
tp1444
a(S'AGCGGAGATAATAGGCGA'
p1445
S'AGTGGAGATAATAGGCGA'
p1446
tp1447
a(S'TCAAAGTAAGGGGAGGCG'
p1448
S'TCAAAGTAAGGGGAGGTG'
p1449
tp1450
a(S'CCGGTGACAGTACATAAA'
p1451
S'CCGGCGACAGTACATAAA'
p1452
tp1453
a(S'CGCGCATCTGGTTGTTTT'
p1454
S'CGCGAATCTGGTTGTTTT'
p1455
tp1456
a(S'TCTGAGGGGCAGTCCGCC'
p1457
S'TCTGAGGGGTAGTCCGCC'
p1458
tp1459
a(S'CCCCCCCCCCGGGGGCCC'
p1460
S'CCCCCCCCCCGGGTGCCC'
p1461
tp1462
a(S'ATCGCATCGCAAGCACAT'
p1463
S'ATCGTATCGCAAGCACAT'
p1464
tp1465
a(S'GTTGGACTCAGGTTCTAG'
p1466
S'GTTGGACTCAGGCTCTAG'
p1467
tp1468
a(S'CCGAAGGTTACTAGTTTG'
p1469
S'CCGAAGGCTACTAGTTTG'
p1470
tp1471
a(S'TAACAGCTTCAAGCGCTT'
p1472
S'TAACAGCTTCAAGTGCTT'
p1473
tp1474
a(S'GTAAGGTGGCAAAAAGGA'
p1475
S'GTAAGGCGGCAAAAAGGA'
p1476
tp1477
a(S'TGGCGTAAAGGAGAGCGG'
p1478
S'TGGTGTAAAGGAGAGCGG'
p1479
tp1480
a(S'GCACCGACTGGCGCGAAC'
p1481
S'GCACCGACTGGCGCGATC'
p1482
tp1483
a(S'AAATTGTAGTAGGAATGT'
p1484
S'AAATTGTAGTAGGAATGG'
p1485
tp1486
a(g1485
S'AACTTGTAGTAGGAATGG'
p1487
tp1488
a(g1485
S'GAATTGTAGTAGGAATGG'
p1489
tp1490
a(S'CGGGCTTGATAACATTTT'
p1491
S'CGGGTTTGATAACATTTT'
p1492
tp1493
a(S'TGTTTCTACCAAATACCC'
p1494
S'TGTTTCTACCAAACACCC'
p1495
tp1496
a(S'ACCGATCTACGGGGTGAT'
p1497
S'ACCGATCTACGGGGCGAT'
p1498
tp1499
a(S'CATGACAGCGGTAAAAAA'
p1500
S'CATGCCAGCGGTAAAAAA'
p1501
tp1502
a(S'CTAAAGGAGGGATAACTT'
p1503
S'CTAAAGGATGGATAACTT'
p1504
tp1505
a(S'GAATCCCGGTGTCTGAGC'
p1506
S'GAATCCCGGCGTCTGAGC'
p1507
tp1508
a(S'TAGCAGGCTGCTTGCACC'
p1509
S'TAGCAGGTTGCTTGCACC'
p1510
tp1511
a(S'GGCCCACCGCTAGGGTGG'
p1512
S'GGCCCACCGCTAGGGCGG'
p1513
tp1514
a(g1512
S'GGCCCACCGCTAGGGAGG'
p1515
tp1516
a(S'AAGCGGCGGTGATAGACG'
p1517
S'AAGCGGTGGTGATAGACG'
p1518
tp1519
a(S'CTGGGCGATGGTAGCATG'
p1520
S'CTGGGCGATGGCAGCATG'
p1521
tp1522
a(S'AACGCCCTTAATACCTGG'
p1523
S'AACGACCTTAATACCTGG'
p1524
tp1525
a(S'GCGTTTGCCGTCCAATGC'
p1526
S'GTGTTTGCCGTCCAATGC'
p1527
tp1528
a(S'AGGATTACATGAATTACT'
p1529
S'AGGATTACATGAATTACG'
p1530
tp1531
a(S'AAATGCAGGAGGGATTAA'
p1532
S'AAATGTAGGAGGGATTAA'
p1533
tp1534
a(S'AAGCTGGGGTGAAGGAGG'
p1535
S'AAGCTGGGGCGAAGGAGG'
p1536
tp1537
a(S'GGGCTGCTAGACATCAAC'
p1538
S'GGGCTGCTAGCCATCAAC'
p1539
tp1540
a(S'CTACACAAAAGTCCAGTT'
p1541
S'CTACACAAAAGCCCAGTT'
p1542
tp1543
a(S'TACGAGTTTGTCTGGCAT'
p1544
S'TACGCGTTTGTCTGGCAT'
p1545
tp1546
a(S'TCAAGCTAGATGCAAAAC'
p1547
S'TCAAGTTAGATGCAAAAC'
p1548
tp1549
a(S'CATAAGGTACGCATTTTG'
p1550
S'CATAAGGCACGCATTTTG'
p1551
tp1552
a(S'TGGGGTGGGATTCTTCTG'
p1553
S'TGGGGCGGGATTCTTCTG'
p1554
tp1555
a(g1553
S'TTGGGTGGGATTCTTCTG'
p1556
tp1557
a(S'CGCGCGAAAAGCGGGGGG'
p1558
S'CGCGTGAAAAGCGGGGGG'
p1559
tp1560
a(S'GCGAAGCATACACAGCTG'
p1561
S'GCGAAGTATACACAGCTG'
p1562
tp1563
a(S'GGAGCGGAGAATAGTCCG'
p1564
S'GGAGTGGAGAATAGTCCG'
p1565
tp1566
a(S'GGGGTGGTAGGCGAACTC'
p1567
S'GGGGCGGTAGGCGAACTC'
p1568
tp1569
a(S'CCCGTGCTGGTGGAGGTC'
p1570
S'CCCGTGCTGGTGGAGGCC'
p1571
tp1572
a(g1570
S'CCCGTGCTGGCGGAGGTC'
p1573
tp1574
a(S'GGGCGTCTATGCACAAAA'
p1575
S'GGGTGTCTATGCACAAAA'
p1576
tp1577
a(S'ACACCAGCCTGGCCATCC'
p1578
S'ACACCAGCCTGGTCATCC'
p1579
tp1580
a(S'TGGTTCAGAGATATTATG'
p1581
S'TGGCTCAGAGATATTATG'
p1582
tp1583
a(S'GTGCTTTTGGGGAGGGTT'
p1584
S'GTGCTTTTGGGGCGGGTT'
p1585
tp1586
a(S'AAGAGCAGAACCGAGCAT'
p1587
S'AAGAGTAGAACCGAGCAT'
p1588
tp1589
a(S'GACGGCGGAAGCTAGGAA'
p1590
S'GACGCCGGAAGCTAGGAA'
p1591
tp1592
a(S'TACCAGGAAGAGTGTACC'
p1593
S'GACCAGGAAGAGTGTACC'
p1594
tp1595
a(S'AAGGCGACCCTCTCTTCT'
p1596
S'AAGGAGACCCTCTCTTCT'
p1597
tp1598
a(S'GCTGCCCGGGCGCGTAGC'
p1599
S'GCTGCCCGGGTGCGTAGC'
p1600
tp1601
a(S'GGAAGATATATCGATTAA'
p1602
S'TGAAGATATATCGATTAA'
p1603
tp1604
a(S'GTGGATGCATCAGCACGG'
p1605
S'GTGGATGCATCAGTACGG'
p1606
tp1607
a(S'AAGGGTGAAAATAGAGCA'
p1608
S'AAGGGCGAAAATAGAGCA'
p1609
tp1610
a(S'TGCGAATTATAGCCTTCC'
p1611
S'GGCGAATTATAGCCTTCC'
p1612
tp1613
a(S'GCCGCGTTTAGTAAATAG'
p1614
S'GCCGGGTTTAGTAAATAG'
p1615
tp1616
a(g1614
S'GCCGAGTTTAGTAAATAG'
p1617
tp1618
a(S'TGCACGCTTCGTCGCCCC'
p1619
S'TGCACGCCTCGTCGCCCC'
p1620
tp1621
a(S'ATTATCTTCTAGTGAGGA'
p1622
S'ATTATCTTCTAGTGAGGT'
p1623
tp1624
a(S'AGACTAAAAGGCGCGCAG'
p1625
S'AGACTAAAAGGTGCGCAG'
p1626
tp1627
a(S'AGCGAGAGGCTGTCGGCG'
p1628
S'AGCGAGAGGCTGTCGGTG'
p1629
tp1630
a(S'ATGGATGCTTGATAAAGC'
p1631
S'ATGGATGCTCGATAAAGC'
p1632
tp1633
a(S'ACCGCGAAGATGGGGAGA'
p1634
S'ACCGAGAAGATGGGGAGA'
p1635
tp1636
a(S'AACGTGGAGCCTGATAAC'
p1637
S'AACGCGGAGCCTGATAAC'
p1638
tp1639
a(S'GGGCTTTCAGCGCGGGCG'
p1640
S'GGGCTTTCAGCGCGGGTG'
p1641
tp1642
a(S'GGCACTTTCTACTATTGA'
p1643
S'GGTACTTTCTACTATTGA'
p1644
tp1645
a(S'CCAAGTCTGAATCAGATG'
p1646
S'CCAAGCCTGAATCAGATG'
p1647
tp1648
a(S'AACCATTCCACGGCGTTG'
p1649
S'AACCATTCCACGGTGTTG'
p1650
tp1651
a(S'GGATGCGATCCCACGGCA'
p1652
S'GGATGTGATCCCACGGCA'
p1653
tp1654
a(g638
g640
tp1655
a(S'AGTTAAGCCTTAAGTACC'
p1656
S'AGTCAAGCCTTAAGTACC'
p1657
tp1658
a(S'TAATGGGCCCGCGGGTTT'
p1659
S'TAATGGGCCCGCGGGCTT'
p1660
tp1661
a(S'CCGGCACGCTAAGATCTA'
p1662
S'CCGGCCCGCTAAGATCTA'
p1663
tp1664
a(S'AAAAGACATTACAGAAAA'
p1665
S'AAAAGACATTATAGAAAA'
p1666
tp1667
a(S'GGACGTCGGAACATCAGG'
p1668
S'GGTCGTCGGAACATCAGG'
p1669
tp1670
a(g1668
S'GGCCGTCGGAACATCAGG'
p1671
tp1672
a(S'TCTTGGACCTAGTCATTA'
p1673
S'TCCTGGACCTAGTCATTA'
p1674
tp1675
a(S'TTGGTGCCTAGGGCACGC'
p1676
g1312
tp1677
a(S'TGGGCAGCGGGGGATTCC'
p1678
S'TGGGAAGCGGGGGATTCC'
p1679
tp1680
a(g1678
S'TGGGTAGCGGGGGATTCC'
p1681
tp1682
a(S'GAGGCCTGGCGCATCCTA'
p1683
S'GAGGTCTGGCGCATCCTA'
p1684
tp1685
a(S'GTTACCCAGCCAGTAATG'
p1686
S'GTGACCCAGCCAGTAATG'
p1687
tp1688
a(S'CCAGCGAGGGTCTGCTGG'
p1689
S'CCAGCGAGGGTCTGCTAG'
p1690
tp1691
a(S'CTGTTTCCTACATTGGTA'
p1692
S'CTGTTTCCTACATTGGCA'
p1693
tp1694
a(S'CAAGGTGAACTGGGATAG'
p1695
S'CAAGGCGAACTGGGATAG'
p1696
tp1697
a(S'TCTCGAGCCCCGCCTGAT'
p1698
S'TCCCGAGCCCCGCCTGAT'
p1699
tp1700
a(S'TGGGAATTAGGTCGCAGG'
p1701
g981
tp1702
a(S'CGCTACACAATGTTACTT'
p1703
S'CGCTACACAATGTCACTT'
p1704
tp1705
a(S'GCGAGAATGCATGTTATT'
p1706
S'GCGAAAATGCATGTTATT'
p1707
tp1708
a(S'ACCCGCACGGCATTAGCG'
p1709
S'ACCCGCACGGCATTAGTG'
p1710
tp1711
a(S'TATTACACAATTGAGGGT'
p1712
S'TATTACCCAATTGAGGGT'
p1713
tp1714
a(S'GGGGTGCATCGTGTTGAC'
p1715
S'GGGGCGCATCGTGTTGAC'
p1716
tp1717
a(S'GGGTTGCGCGGTGGGACA'
p1718
S'GGGATGCGCGGTGGGACA'
p1719
tp1720
a(g1718
S'GGGCTGCGCGGTGGGACA'
p1721
tp1722
a(S'TTAGAGAGTATATGATAA'
p1723
S'TTAGTGAGTATATGATAA'
p1724
tp1725
a(S'GCGAAACACCAGTAGTGT'
p1726
S'GCGAAACACCAGTAGTAT'
p1727
tp1728
a(S'ACGAACGAGGCGGTCGAT'
p1729
S'ACGAACGAGGTGGTCGAT'
p1730
tp1731
a(g1397
S'GACGAATAGATAACAAGG'
p1732
tp1733
a(S'CAACCGGGTAATTGCTGC'
p1734
S'CAACCGGGCAATTGCTGC'
p1735
tp1736
a(S'ACAGCTTAGAATCAATTA'
p1737
S'ACAGTTTAGAATCAATTA'
p1738
tp1739
a(S'CAGGCAATCGTGGAACGG'
p1740
S'CAGGTAATCGTGGAACGG'
p1741
tp1742
a(S'CGGTAGCGTTATTCTGCA'
p1743
S'CGGCAGCGTTATTCTGCA'
p1744
tp1745
a(S'AAGGACTAACGAGGGCAG'
p1746
S'AAGGCCTAACGAGGGCAG'
p1747
tp1748
a(S'TGCGCATCCGGACGGGGG'
p1749
S'TGCGAATCCGGACGGGGG'
p1750
tp1751
a(S'TCGTGGTCCGGATAGCAC'
p1752
S'TCGCGGTCCGGATAGCAC'
p1753
tp1754
a(S'CGCGAGTGTCACTAGCCA'
p1755
S'CGCGAGTGTCATTAGCCA'
p1756
tp1757
a(g1755
S'CGCGCGTGTCACTAGCCA'
p1758
tp1759
a(S'CAGGCAGGATCACGGGGC'
p1760
S'CAGGTAGGATCACGGGGC'
p1761
tp1762
a(S'AAGGAGACGCATTTGTTT'
p1763
S'CAGGAGACGCATTTGTTT'
p1764
tp1765
a(g519
g521
tp1766
a(g1669
g1671
tp1767
a(g1669
S'GGTCGCCGGAACATCAGG'
p1768
tp1769
a(S'GAGACCTGGTATGCGTGG'
p1770
S'GAGACCTGGTATGCGTTG'
p1771
tp1772
a(S'ACGGTAGGTTCCGAACGG'
p1773
S'ACGGTAGGTTCCGTACGG'
p1774
tp1775
a(S'GGGGCGGGGTGCGCAGGA'
p1776
S'GGGGCGGGGTGTGCAGGA'
p1777
tp1778
a(S'TCCGTGATATTACCAAGA'
p1779
S'TCAGTGATATTACCAAGA'
p1780
tp1781
a(S'GTGAAAGCATGAAGTTCG'
p1782
S'GTGAAAGTATGAAGTTCG'
p1783
tp1784
a(S'CTCTGTTGCCAAGTTTCC'
p1785
S'CTCTGTTGCCAAGTTCCC'
p1786
tp1787
a(S'ATCCTGAGGGTAATGTCT'
p1788
S'ATCCTGAGGGCAATGTCT'
p1789
tp1790
a(S'CCGCGCGCGGTGGGTGGG'
p1791
S'CCGCGCGCGGTGGGCGGG'
p1792
tp1793
a(S'AGAGTGCGATAAGGGCGG'
p1794
S'AGAGTGCGATAAGGGTGG'
p1795
tp1796
a(S'TACACGCATCACGTCATT'
p1797
S'TCCACGCATCACGTCATT'
p1798
tp1799
a(S'CTGGCGTCCACCGACACA'
p1800
S'CTGGTGTCCACCGACACA'
p1801
tp1802
a(S'AGGTTCAGGGTGAGGATA'
p1803
S'AGGTTCAGGGCGAGGATA'
p1804
tp1805
a(g1803
S'AGGATCAGGGTGAGGATA'
p1806
tp1807
a(g1803
S'AGGTTCAGGGAGAGGATA'
p1808
tp1809
a(S'GTACCCGGGGATGGGCGC'
p1810
S'GTACCCGGGGATGGGTGC'
p1811
tp1812
a(S'TAGTAGTACTGGTCTTAA'
p1813
S'TAGTCGTACTGGTCTTAA'
p1814
tp1815
a(S'TGGGCACGGCTGGGCTTC'
p1816
S'TGGGTACGGCTGGGCTTC'
p1817
tp1818
a(S'TGGGTGGGTCATCAGGAG'
p1819
S'TGGGCGGGTCATCAGGAG'
p1820
tp1821
a(S'TAAGCGCTCTCAATCCCG'
p1822
S'TAAGTGCTCTCAATCCCG'
p1823
tp1824
a(g1822
S'TAAGAGCTCTCAATCCCG'
p1825
tp1826
a(S'AGGGCTGTGAGAAATAAG'
p1827
S'AGGGTTGTGAGAAATAAG'
p1828
tp1829
a(S'GGTAATGGGAGAATAAAG'
p1830
S'GGCAATGGGAGAATAAAG'
p1831
tp1832
a(S'AGGTAGGCGGATGCAGAG'
p1833
S'AGGTAGGTGGATGCAGAG'
p1834
tp1835
a(S'AGGCGTCCGTAGAGCTAT'
p1836
S'AGGCGTCCGTAGAGCTAA'
p1837
tp1838
a(S'CCAGAGTCGGGGCATCCG'
p1839
S'CCAGAGTCGGGGCATCCT'
p1840
tp1841
a(S'TTGGAAGTTGTTGTCCTA'
p1842
S'TTGGCAGTTGTTGTCCTA'
p1843
tp1844
a(S'GCACAACGGGGAATTTCT'
p1845
S'GTACAACGGGGAATTTCT'
p1846
tp1847
a(S'GGCGGCGTCGAACAGAGA'
p1848
S'GGTGGCGTCGAACAGAGA'
p1849
tp1850
a(S'GGAGTCTGTCGAAACATA'
p1851
S'GGAGTCTGCCGAAACATA'
p1852
tp1853
a(S'TCGGCGCAAGCTACATCA'
p1854
S'TCGGTGCAAGCTACATCA'
p1855
tp1856
a(g1854
S'TCGGAGCAAGCTACATCA'
p1857
tp1858
a(S'GCAATGGCCTGGTCTGAC'
p1859
S'GCAATGGTCTGGTCTGAC'
p1860
tp1861
a(S'TGGGCGTCGGGCCGGCGG'
p1862
S'TGGGTGTCGGGCCGGCGG'
p1863
tp1864
a(S'TGTACAGGTGCATTTGGT'
p1865
S'TGTAAAGGTGCATTTGGT'
p1866
tp1867
a(S'AGAATTGTACATGGCAAC'
p1868
S'AGAATTGTACATGGTAAC'
p1869
tp1870
a(S'CGGGTCTCGTGTAACATG'
p1871
S'CGGGCCTCGTGTAACATG'
p1872
tp1873
a(S'CACGAGTTAGTGAACAGT'
p1874
S'CACGAGTTAGTTAACAGT'
p1875
tp1876
a(S'CCACCACGCTAGGGTTAT'
p1877
S'CCACCACGATAGGGTTAT'
p1878
tp1879
a(S'GTACACGGGCGGGGGGGG'
p1880
S'GTACACGGGCGGGGCGGG'
p1881
tp1882
a(g1880
S'GTACACGGGCGGGGTGGG'
p1883
tp1884
a(S'TCTGGTCATGGATGCCCA'
p1885
S'TCTGGTCATGGTTGCCCA'
p1886
tp1887
a(S'ATGGACCCAGCGAGGAGG'
p1888
S'ATGGCCCCAGCGAGGAGG'
p1889
tp1890
a(S'GGTCCATCCGTGTAGGGG'
p1891
S'GGTCCATCCGAGTAGGGG'
p1892
tp1893
a(S'ACGCTCGGACTATAAGGT'
p1894
S'ACGCCCGGACTATAAGGT'
p1895
tp1896
a(S'TTACCAAGAAAGAGATTC'
p1897
S'TTACAAAGAAAGAGATTC'
p1898
tp1899
a(S'GTCTGTGATTCTGTTTGG'
p1900
S'GTCTGCGATTCTGTTTGG'
p1901
tp1902
a(S'CAAGACATTATATCCGCA'
p1903
S'CAAGACATTATATCAGCA'
p1904
tp1905
a(S'TGGCGCGGAAAAAGCAAA'
p1906
S'TGGCGTGGAAAAAGCAAA'
p1907
tp1908
a(S'GGCGTAACCAATGGTCGT'
p1909
S'GGTGTAACCAATGGTCGT'
p1910
tp1911
a(S'AATGGCTCAGCATGGTGG'
p1912
S'AATGGCTCAGCATGGCGG'
p1913
tp1914
a(g1852
S'GGAGCCTGCCGAAACATA'
p1915
tp1916
a(S'TTTCCGGCCGAACAACTA'
p1917
S'TTTCAGGCCGAACAACTA'
p1918
tp1919
a(g1855
g1857
tp1920
a(S'CATGCCGGCGCAGGGAAG'
p1921
S'CATGACGGCGCAGGGAAG'
p1922
tp1923
a(S'AGCAGGTATACTGTGTGT'
p1924
S'AGAAGGTATACTGTGTGT'
p1925
tp1926
a(S'GGAGGTTGGTCGCGAGCT'
p1927
S'GGCGGTTGGTCGCGAGCT'
p1928
tp1929
a(S'AATCCGGCGGCAAAATAT'
p1930
S'AATCCGGCGGTAAAATAT'
p1931
tp1932
a(S'CTGGCGTAACCTAGTGGA'
p1933
S'CTGGCGCAACCTAGTGGA'
p1934
tp1935
a(S'TGCAAAGGTGCATTTGGT'
p1936
g1866
tp1937
a(S'GGACGTTGAAACCTTTTG'
p1938
S'GGACGTTGAAACCTTTCG'
p1939
tp1940
a(S'AGCCAGTGTTGTAATCTC'
p1941
S'AGCCCGTGTTGTAATCTC'
p1942
tp1943
a(S'TAGAATCTCATCAGCTCA'
p1944
S'TAGCATCTCATCAGCTCA'
p1945
tp1946
a(S'AGGCTGTGTAACAGAGAG'
p1947
S'AGGTTGTGTAACAGAGAG'
p1948
tp1949
a(S'TGCGAGGTGAACAACGTC'
p1950
S'TGCGAGGCGAACAACGTC'
p1951
tp1952
a(g1950
S'TGCGAGGAGAACAACGTC'
p1953
tp1954
a(S'GGTGGCCCATATGTCGAC'
p1955
S'GGTGGCCCATATGCCGAC'
p1956
tp1957
a(S'CGTGCACGACGCAGTCAT'
p1958
S'CGCGCACGACGCAGTCAT'
p1959
tp1960
a(S'AAAGTTGTACTGAATTAA'
p1961
S'AAAGCTGTACTGAATTAA'
p1962
tp1963
a(S'CCGTTGGAATGGGATCAA'
p1964
S'CCGTTGGCATGGGATCAA'
p1965
tp1966
a(g1964
S'CCGTTGGTATGGGATCAA'
p1967
tp1968
a(S'CGTTCTCCTCTTAATCGC'
p1969
S'CGCTCTCCTCTTAATCGC'
p1970
tp1971
a(S'GCTGGACCCCTGACTAAA'
p1972
S'GCCGGACCCCTGACTAAA'
p1973
tp1974
a(S'AGGTGTATTGGATAGCGG'
p1975
S'AGGTGTATCGGATAGCGG'
p1976
tp1977
a(S'ATATATCGTGGTCGGTAG'
p1978
S'ATATATCGTGGTCGGTAT'
p1979
tp1980
a(S'TGAGACCGGCCGCCATCG'
p1981
S'TGAAACCGGCCGCCATCG'
p1982
tp1983
a(S'ACGACCGTCATTCGGGAT'
p1984
S'ACGATCGTCATTCGGGAT'
p1985
tp1986
a(S'TTGAACTGACCCCTTCAA'
p1987
S'TTGAACTGACACCTTCAA'
p1988
tp1989
a(S'GGTAGCGGCGGGGGATAC'
p1990
S'GGTAGCGGCGGGTGATAC'
p1991
tp1992
a(S'GTGGACATAGTTGTTTCG'
p1993
S'GTGGTCATAGTTGTTTCG'
p1994
tp1995
a(S'GTAGATTTGTAGTTGTGG'
p1996
S'GTAGATTTGTAGTTGCGG'
p1997
tp1998
a(g1996
S'GTAGCTTTGTAGTTGTGG'
p1999
tp2000
a(S'AGGCACGACTTACAAAGT'
p2001
S'AGGTACGACTTACAAAGT'
p2002
tp2003
a(S'CCAAAGGTCGCTCCGAGA'
p2004
S'CCAACGGTCGCTCCGAGA'
p2005
tp2006
a(S'TGACTATGCAGAAATGCG'
p2007
S'TGACTCTGCAGAAATGCG'
p2008
tp2009
a(S'AATCCTTGTTGTTAGGAT'
p2010
S'AATCATTGTTGTTAGGAT'
p2011
tp2012
a(S'GGCGAGAGAAGATATGAC'
p2013
S'GGTGAGAGAAGATATGAC'
p2014
tp2015
a(S'GCCAGCTATTAAAAAGGT'
p2016
S'GCCAGCTATTAAAAAGGC'
p2017
tp2018
a(S'GCTTTATGGAATCGCTGG'
p2019
S'GATTTATGGAATCGCTGG'
p2020
tp2021
a(S'AGGAACGCGGGGCATTAG'
p2022
S'AGGAACGCGGGGTATTAG'
p2023
tp2024
a(S'ACAGCGCCCCCTTGGGTG'
p2025
S'ACAGCGTCCCCTTGGGTG'
p2026
tp2027
a(S'CGGGCTACGTGCCCGTCA'
p2028
S'CGGGTTACGTGCCCGTCA'
p2029
tp2030
a(S'GGGCATAGACGTCACTGC'
p2031
S'GGGTATAGACGTCACTGC'
p2032
tp2033
a(S'GATGTAGGGGTGGGTCAA'
p2034
S'GATGTAGGGGCGGGTCAA'
p2035
tp2036
a(S'CAGGCTGTACAAGCCGAC'
p2037
S'CAGGTTGTACAAGCCGAC'
p2038
tp2039
a(S'TTACTTGCGGTTTATCAT'
p2040
S'TTACTTGCGGTTTATCAG'
p2041
tp2042
a(S'GTGGATTGAACCACGAAC'
p2043
S'GTGGCTTGAACCACGAAC'
p2044
tp2045
a(S'AACGAGCGCTCTGCCCGG'
p2046
S'AACGCGCGCTCTGCCCGG'
p2047
tp2048
a(S'GTGTTTGTACCCAACCAG'
p2049
S'GTGTTTGTACCCAACCAT'
p2050
tp2051
a(S'ATGGCGCATGCCTAGGCC'
p2052
S'ATGGCGCATGCCTAGGTC'
p2053
tp2054
a(S'CGCGAGGCTGCGATTTAG'
p2055
S'CGCGAGGCTGCGATTTAT'
p2056
tp2057
a(S'TGCCGCAGCCCGTCGTTG'
p2058
S'GGCCGCAGCCCGTCGTTG'
p2059
tp2060
a(g1615
g1617
tp2061
a(S'GGCGGATATAGATATACA'
p2062
S'GGTGGATATAGATATACA'
p2063
tp2064
a(S'CGGACGGAGGGAGTGTAA'
p2065
S'CGGACGGCGGGAGTGTAA'
p2066
tp2067
a(S'AGTAGGGCGACGTATACA'
p2068
S'AGTAGGGTGACGTATACA'
p2069
tp2070
a(S'TGGTTGGAGGCGCTTTCG'
p2071
S'TGGTTGGAGGTGCTTTCG'
p2072
tp2073
a(S'TCTGGCTCGGGCGTGTAC'
p2074
S'TCTGGCTCGGGTGTGTAC'
p2075
tp2076
a(S'GTTAAGGCGGTTGCGGGT'
p2077
S'GTTAAGGCGGTTGCGGTT'
p2078
tp2079
a(S'CGGGCTTATTTGGCAAGG'
p2080
S'CGGGATTATTTGGCAAGG'
p2081
tp2082
a(g2080
S'CGGGTTTATTTGGCAAGG'
p2083
tp2084
a(S'TGGGCGCTAAGTGATGAA'
p2085
S'TGGGTGCTAAGTGATGAA'
p2086
tp2087
a(S'GATGGCGGTTGGGGTGAG'
p2088
S'GATGGCGGTTGGGTTGAG'
p2089
tp2090
a(S'CTTAGAGTATTCACCCAG'
p2091
S'CTTAGAGCATTCACCCAG'
p2092
tp2093
a(S'CTAACCAAACCAAGTTGC'
p2094
S'CTGACCAAACCAAGTTGC'
p2095
tp2096
a(S'TTTAAACGTCGCTTGGAG'
p2097
S'TTTAAACGTCGCTGGGAG'
p2098
tp2099
a(S'CACAATAGGATGTTGACA'
p2100
S'CACAATAGGACGTTGACA'
p2101
tp2102
a(S'TGACTTACGCACGGTTAC'
p2103
S'TGACTTACGCACGGTTAT'
p2104
tp2105
a(S'ATGGAGACACAGCACCGG'
p2106
S'ACGGAGACACAGCACCGG'
p2107
tp2108
a(S'AAAGATGATGTTTCCGAC'
p2109
S'AAAGCTGATGTTTCCGAC'
p2110
tp2111
a(S'TCTAGGCGGGTTGTCCCT'
p2112
S'TCTAGGCGGGCTGTCCCT'
p2113
tp2114
a(S'ACCGTGGCCAAGCCGCAG'
p2115
S'ACCGCGGCCAAGCCGCAG'
p2116
tp2117
a(S'CGTATAGCTTATGTGATC'
p2118
S'CGTATAGTTTATGTGATC'
p2119
tp2120
a(S'GGGGCGGAAGGACCTCCT'
p2121
S'GGGGTGGAAGGACCTCCT'
p2122
tp2123
a(S'TATTACCCAATTGAGGGC'
p2124
g1713
tp2125
a(g1713
S'TATTAACCAATTGAGGGT'
p2126
tp2127
a(S'GTCTCCGCTAAGGCGTAA'
p2128
S'GTCTCCGCTAAGGTGTAA'
p2129
tp2130
a(S'CGCGGGGTTCACCACCCA'
p2131
S'AGCGGGGTTCACCACCCA'
p2132
tp2133
a(S'AAATCTAGTTGAGCACTA'
p2134
S'AAATCTAGTTGAGTACTA'
p2135
tp2136
a(S'GCAGCCGACGTATTTTCC'
p2137
S'GCAGCCGACGCATTTTCC'
p2138
tp2139
a(S'GGAGGCGCGGTTCGTACC'
p2140
S'GGAGGTGCGGTTCGTACC'
p2141
tp2142
a(S'TGTGCCTACGGAGGTTGC'
p2143
S'TGTGACTACGGAGGTTGC'
p2144
tp2145
a(S'AATTCCGAACGTTGACCA'
p2146
S'ACTTCCGAACGTTGACCA'
p2147
tp2148
a(S'GCTTAGAAGTTCATACCC'
p2149
S'GCTTCGAAGTTCATACCC'
p2150
tp2151
a(S'GTGCTAAATATGGGGATC'
p2152
S'GTGCTAAATAGGGGGATC'
p2153
tp2154
a(S'TGGGACCAGCGTTCACAC'
p2155
S'TGAGACCAGCGTTCACAC'
p2156
tp2157
a(S'TCTCCCGGGGTGATGTCT'
p2158
S'TCTCCCGGGGCGATGTCT'
p2159
tp2160
a(g2158
S'TCTCACGGGGTGATGTCT'
p2161
tp2162
a(S'AAGGAGCACTTGCAAGGC'
p2163
S'AAGGCGCACTTGCAAGGC'
p2164
tp2165
a(g2163
S'AAGGTGCACTTGCAAGGC'
p2166
tp2167
a(S'TACAATAGCACCATACAT'
p2168
S'TACAATAGTACCATACAT'
p2169
tp2170
a(S'AACCGCCACGAGGTTTCT'
p2171
S'AACCGCCACGAGGCTTCT'
p2172
tp2173
a(S'GGGCAACAGGCGAAGGGG'
p2174
S'GGGCAACAGGTGAAGGGG'
p2175
tp2176
a(S'GCTAGATCACACTCGTTG'
p2177
S'ACTAGATCACACTCGTTG'
p2178
tp2179
a(S'TTAGCTAGATCTTTTCGA'
p2180
S'TTAGTTAGATCTTTTCGA'
p2181
tp2182
a(S'CGGTGGTCCCATCGTTCG'
p2183
S'CGGCGGTCCCATCGTTCG'
p2184
tp2185
a(S'TGGCGGCCACTAATGGTG'
p2186
S'GGGCGGCCACTAATGGTG'
p2187
tp2188
a(g52
S'TTAGTATTGGAATTTCGG'
p2189
tp2190
a(g52
S'TTAGTATTGGCATTTCGG'
p2191
tp2192
a(S'CCATGGGTGATAACATAG'
p2193
S'CCATGGGCGATAACATAG'
p2194
tp2195
a(S'GACAAAGGAGCTTACATC'
p2196
S'GACAAAGGAGCTTACATT'
p2197
tp2198
a(S'CGTGTATTTGGGAAAACC'
p2199
S'CGTGCATTTGGGAAAACC'
p2200
tp2201
a(S'GGAGGCAAGGTATGGCTG'
p2202
S'GGAGGCAAGGAATGGCTG'
p2203
tp2204
a(S'TATTGAGCTGGGATTGGT'
p2205
S'TATTGAGCTGGGATTGGC'
p2206
tp2207
a(g793
g795
tp2208
a(S'TGAACGGTCTGCTGTTGA'
p2209
S'TGAAAGGTCTGCTGTTGA'
p2210
tp2211
a(S'CGCAACCCGAGGTGTGAA'
p2212
S'CGCAACCCGAGGCGTGAA'
p2213
tp2214
a(S'TAATGAAGAATTGAGCGG'
p2215
S'TAATGAAGAATTGAGCTG'
p2216
tp2217
a(S'GTGGCTCAGCGGTCATAA'
p2218
S'GTGGTTCAGCGGTCATAA'
p2219
tp2220
a(S'TGGTGATTTCTACTTGAA'
p2221
S'TGGCGATTTCTACTTGAA'
p2222
tp2223
a(S'AAGCACGGAATGCACATG'
p2224
S'AAGCACGGAATGTACATG'
p2225
tp2226
a(S'CCCCATAGGTTAAAACTA'
p2227
S'CCCCATAGGCTAAAACTA'
p2228
tp2229
a(S'GTATGTGACGCCAGGAGT'
p2230
S'GTATGTTACGCCAGGAGT'
p2231
tp2232
a(S'CATGAGAGGTGTCAGGCA'
p2233
S'CATGAGAGGAGTCAGGCA'
p2234
tp2235
a(g2233
S'CATGAGAGGCGTCAGGCA'
p2236
tp2237
a(S'GCGGCAGCTTCGAGCGTA'
p2238
S'GCGGTAGCTTCGAGCGTA'
p2239
tp2240
a(S'CTCGCGGGTAATTCGCGG'
p2241
S'CTCGTGGGTAATTCGCGG'
p2242
tp2243
a(S'ATCCTGGCGTTATGGTGC'
p2244
S'ATCCTGGTGTTATGGTGC'
p2245
tp2246
a(S'GGTCGGTTTTGTAAGAAG'
p2247
S'GGTCGGCTTTGTAAGAAG'
p2248
tp2249
a(g2247
S'GGCCGGTTTTGTAAGAAG'
p2250
tp2251
a(g2247
S'GGTAGGTTTTGTAAGAAG'
p2252
tp2253
a(S'GAGGCGTGGGGGCTGACA'
p2254
S'GAGGTGTGGGGGCTGACA'
p2255
tp2256
a(S'CCTAGCAAGATAAGTGCA'
p2257
S'CCTAGCAAGATAAGCGCA'
p2258
tp2259
a(S'TCGGATTAGGGCGCTGTG'
p2260
S'TCGGCTTAGGGCGCTGTG'
p2261
tp2262
a(S'GCAACGGTGCTGAAGCAA'
p2263
S'GCAACGGCGCTGAAGCAA'
p2264
tp2265
a(g435
S'TTGGCACCCCCTCAACGC'
p2266
tp2267
a(S'AGCATTGCGGCTTGTTTC'
p2268
S'AGCATTGCGGTTTGTTTC'
p2269
tp2270
a(S'CCGCACATCGATCATAAG'
p2271
S'CCGCACATCGCTCATAAG'
p2272
tp2273
a(S'TAAAGACGCGCTCTCTAG'
p2274
S'TAAAGACGCGCTCTCTAT'
p2275
tp2276
a(S'GGGCTCTGGTTTAGCGCC'
p2277
S'GGGTTCTGGTTTAGCGCC'
p2278
tp2279
a(g2277
S'GGGATCTGGTTTAGCGCC'
p2280
tp2281
a(S'TCTCTGTCGCAGCTTTCC'
p2282
S'TCTCCGTCGCAGCTTTCC'
p2283
tp2284
a(S'TAAGAGAGGATTGTACAG'
p2285
S'TAAGCGAGGATTGTACAG'
p2286
tp2287
a(S'TGCGCTAGGTGTCAGACA'
p2288
S'TGCGCTAGGCGTCAGACA'
p2289
tp2290
a(S'TATTAGGCGAACCATTAC'
p2291
S'TATTAGGTGAACCATTAC'
p2292
tp2293
a(S'AACCACCCAGGCATCCTT'
p2294
S'AACCACCCAGGTATCCTT'
p2295
tp2296
a(S'GCGCATAGAAATTGTATT'
p2297
S'GCGCCTAGAAATTGTATT'
p2298
tp2299
a(g1187
S'GCAGCCCACTCACCAGAC'
p2300
tp2301
a(S'ACTTCCATATTAAGTGAT'
p2302
S'CCTTCCATATTAAGTGAT'
p2303
tp2304
a(S'TCGGTCACCAGGCGGGGG'
p2305
S'TTGGTCACCAGGCGGGGG'
p2306
tp2307
a(S'TATCGAGCCGGGCAACGT'
p2308
S'TATCGAGCCGGGAAACGT'
p2309
tp2310
a(g2308
S'TATCGAGCCGGGTAACGT'
p2311
tp2312
a(S'GGGAACCTGTTGTCAAGG'
p2313
S'GGGAACCTGTTGTCAATG'
p2314
tp2315
a(S'ACCGATAAGATGGGGAGA'
p2316
g1635
tp2317
a(S'TTTTTAGATTGTGTTACA'
p2318
S'TTTTTAGATTGTGTTCCA'
p2319
tp2320
a(S'TTTGACCGGGCGGTTAAG'
p2321
g1324
tp2322
a(S'CGTCCCCCAGACTATTCT'
p2323
S'CGCCCCCCAGACTATTCT'
p2324
tp2325
a(S'TTGGTATTAATGCAAAAA'
p2326
S'TTGGCATTAATGCAAAAA'
p2327
tp2328
a(S'TGCAACGCATAAGCAACG'
p2329
g17
tp2330
a(S'AGAAATTTATCGTCAATG'
p2331
g1043
tp2332
a(S'AACTCGCCACGTCGAGCT'
p2333
S'AGCTCGCCACGTCGAGCT'
p2334
tp2335
a(S'GGAGGTGAAGGGTTGTCC'
p2336
S'GGAGGCGAAGGGTTGTCC'
p2337
tp2338
a(S'TTCTGGCCCTCTAAAAAG'
p2339
S'TTCTTGCCCTCTAAAAAG'
p2340
tp2341
a(S'CGCCGGACAATTACAAGT'
p2342
S'CGCCAGACAATTACAAGT'
p2343
tp2344
a(g2342
S'CGCCGGCCAATTACAAGT'
p2345
tp2346
a(g2342
S'TGCCGGACAATTACAAGT'
p2347
tp2348
a(S'GTACCGTAAGAGTGATAG'
p2349
S'GTACCGTAAGAGCGATAG'
p2350
tp2351
a(S'GGAGGGCGAACGGCGCGG'
p2352
S'GGAGGGCGAACGGTGCGG'
p2353
tp2354
a(S'GGGGGCGTTATACGTGGG'
p2355
S'GGGGGCGATATACGTGGG'
p2356
tp2357
a(S'TAAACACCGACTTCCTCC'
p2358
S'TAAACACCGACTCCCTCC'
p2359
tp2360
a(S'AATGTGTGGTAAATGGGA'
p2361
S'AATGGGTGGTAAATGGGA'
p2362
tp2363
a(S'ACATAGCAATTTAGGTAC'
p2364
S'ACATAGTAATTTAGGTAC'
p2365
tp2366
a(S'CATGTGATATGTGGCGCC'
p2367
S'CATGCGATATGTGGCGCC'
p2368
tp2369
a(S'GAGTACATCGGTCCAGCT'
p2370
S'GAGTACATCGGCCCAGCT'
p2371
tp2372
a(S'CCCTAAGGCTATACACAA'
p2373
S'CCCTAAGGTTATACACAA'
p2374
tp2375
a(S'CTTCGCCCCATAGGGCTC'
p2376
S'CTTCGCCCCATAGGGTTC'
p2377
tp2378
a(S'CATCGGTAATCAATAGGA'
p2379
S'CATCAGTAATCAATAGGA'
p2380
tp2381
a(S'CCATCCTATCATATATTG'
p2382
S'CCATACTATCATATATTG'
p2383
tp2384
a(S'CACGCGATGGAGGGTACT'
p2385
S'CACGAGATGGAGGGTACT'
p2386
tp2387
a(S'CTTGTAGCGGCAGCGATG'
p2388
S'CTTGTAGTGGCAGCGATG'
p2389
tp2390
a(S'AATGCCTCAATGCGCTCC'
p2391
S'AATGCTTCAATGCGCTCC'
p2392
tp2393
a(S'TAAGGCCTACTAGCCTGC'
p2394
S'TAAGGCCTACTAGCCTTC'
p2395
tp2396
a(S'TTTAAACGGAAATAGGCA'
p2397
S'TTTAAACGGTAATAGGCA'
p2398
tp2399
a(S'GGTAGTCAGGAGAGGAAC'
p2400
S'GGTCGTCAGGAGAGGAAC'
p2401
tp2402
a(S'GGCTGAGGAAGGTAGGAC'
p2403
S'GGTTGAGGAAGGTAGGAC'
p2404
tp2405
a(S'CTGGCGTGGAGATGACGG'
p2406
S'CTGGTGTGGAGATGACGG'
p2407
tp2408
a(S'CGGGTTAACAAAGATGCA'
p2409
S'CGGGCTAACAAAGATGCA'
p2410
tp2411
a(S'TCAGCGATATTACCAAGA'
p2412
g1780
tp2413
a(S'GGGGTGGTTCAGCGGGCC'
p2414
S'GGGGAGGTTCAGCGGGCC'
p2415
tp2416
a(g2414
S'GGGGCGGTTCAGCGGGCC'
p2417
tp2418
a(S'TTCACCGTTAATGGCACC'
p2419
S'TTCACCGTTAATGGTACC'
p2420
tp2421
a(S'CCTATCAAGGTATTCCGT'
p2422
S'CCTATCAAGGCATTCCGT'
p2423
tp2424
a(S'GGCTACGGGCCTAAACGC'
p2425
S'GGCTACGGGCCTAAATGC'
p2426
tp2427
a(g1149
g1151
tp2428
a(S'GGACTAAAGTCGGATTCG'
p2429
S'GGTCTAAAGTCGGATTCG'
p2430
tp2431
a(S'GAGGTGATTAAGGGTCGA'
p2432
S'GAGGCGATTAAGGGTCGA'
p2433
tp2434
a(S'TCTAGATAAAAGGTACTG'
p2435
S'TCTAGATAAAAGGAACTG'
p2436
tp2437
a(g2435
S'TCTAGATAAAAGGCACTG'
p2438
tp2439
a(S'GGAGCGAGCAACGATAAC'
p2440
S'GGAGTGAGCAACGATAAC'
p2441
tp2442
a(g1513
g1515
tp2443
a(S'GATCTGTAATTGGTGAGA'
p2444
S'GATCTGTAATTGGAGAGA'
p2445
tp2446
a(S'ATGGTTTTTACCCCTTTG'
p2447
g345
tp2448
a(S'TTGCTTAATAACAACGAT'
p2449
S'TTGATTAATAACAACGAT'
p2450
tp2451
a(S'AACCTGCGTGATCGGAGG'
p2452
S'AACCTGCGTGCTCGGAGG'
p2453
tp2454
a(S'AGGCGCTGCGTGACCTGT'
p2455
S'AGGTGCTGCGTGACCTGT'
p2456
tp2457
a(S'TGAATGGTTCGCCGGATG'
p2458
S'TGAATGGTTTGCCGGATG'
p2459
tp2460
a(S'TGATAATTCGCGTTGAGT'
p2461
S'TGATAATTCGTGTTGAGT'
p2462
tp2463
a(S'TAATCAGGGTATATAGGG'
p2464
S'TAATCAGGGCATATAGGG'
p2465
tp2466
a(S'AGTCTAGCCGCTGTGAGG'
p2467
S'AGTCGAGCCGCTGTGAGG'
p2468
tp2469
a(S'ACAACCGATGGCGAAAAC'
p2470
S'ACAACCGATGGCAAAAAC'
p2471
tp2472
a(S'CGGCGATTCGGATGTGAC'
p2473
S'CGGTGATTCGGATGTGAC'
p2474
tp2475
a(S'GGGTGGCGGGCGCGAGCC'
p2476
S'GGGCGGCGGGCGCGAGCC'
p2477
tp2478
a(S'AACGTAATGGAGCACAAT'
p2479
S'AACGAAATGGAGCACAAT'
p2480
tp2481
a(S'TCGTAGCCATATAATGCC'
p2482
S'TCGCAGCCATATAATGCC'
p2483
tp2484
a(S'CCATCCGAAATCGGACCG'
p2485
S'CCATACGAAATCGGACCG'
p2486
tp2487
a(S'GCGGCCTCGGGGCTCTGG'
p2488
S'ACGGCCTCGGGGCTCTGG'
p2489
tp2490
a(S'AAGCGTTTGTGCCCAGGG'
p2491
S'AAGCGTTTGCGCCCAGGG'
p2492
tp2493
a(S'TGGGGCGCGATCGATATC'
p2494
S'TGGGGTGCGATCGATATC'
p2495
tp2496
a(S'GAGCATCAATGGTAGATA'
p2497
S'GAGCATCAATGGCAGATA'
p2498
tp2499
a(S'CGTGCGTAGCCTCATCAT'
p2500
S'CGTGTGTAGCCTCATCAT'
p2501
tp2502
a(S'CGGGCGCCACATGACGGT'
p2503
S'CGGGTGCCACATGACGGT'
p2504
tp2505
a(S'AGTCAAATCGTCATCGTA'
p2506
S'AGCCAAATCGTCATCGTA'
p2507
tp2508
a(S'TTCGCGGTTTAGAATTGA'
p2509
S'TTCGAGGTTTAGAATTGA'
p2510
tp2511
a(S'ATCAATCAAGTAGTGTAG'
p2512
S'ATCAATCAAGCAGTGTAG'
p2513
tp2514
a(S'CGGTTTGGGGCGTCTGGA'
p2515
S'CGGTTTGGGGCGTCTGGT'
p2516
tp2517
a(S'CAACTGGTACCAATGTAC'
p2518
S'CAACTGGCACCAATGTAC'
p2519
tp2520
a(S'GGTATTTGAGGATTAACT'
p2521
S'GGCATTTGAGGATTAACT'
p2522
tp2523
a(S'GTACCGGCGGGGGGGGAC'
p2524
S'GTACCGGCGGGGGGGGGC'
p2525
tp2526
a(S'GTGGGTTATAGGCGGCGG'
p2527
S'GTGGGTTATAGGCGGAGG'
p2528
tp2529
a(g2527
S'GTGGGTTATAGGCGGTGG'
p2530
tp2531
a(S'ACAGGCTCCGGGTACCGG'
p2532
S'ACAGGCTCCAGGTACCGG'
p2533
tp2534
a(S'ATGCAAGGTACAGACTGG'
p2535
S'ATGCAAGGCACAGACTGG'
p2536
tp2537
a(S'TGCGACTTTTGTCAATCT'
p2538
S'TGCGCCTTTTGTCAATCT'
p2539
tp2540
a(S'CTTTAGTGATCTCCGATT'
p2541
S'CTTTAGAGATCTCCGATT'
p2542
tp2543
a(S'CGAGATCTGACGTTAAGC'
p2544
S'CGAGCTCTGACGTTAAGC'
p2545
tp2546
a(S'GCGGAAGGGTGAGTAGCT'
p2547
S'GCGGAAGGGCGAGTAGCT'
p2548
tp2549
a(S'CTTGTTGCTCCGTTGCGG'
p2550
S'CTTGCTGCTCCGTTGCGG'
p2551
tp2552
a(S'GGACGGCGGGGAGAAGTA'
p2553
S'GGACGGCGGGGTGAAGTA'
p2554
tp2555
a(S'CAGCCATCCGATTTGATA'
p2556
S'CAGCCATCCGCTTTGATA'
p2557
tp2558
a(S'GCTCGGAAAGTGAAGTGC'
p2559
S'GCTCGGAAAGCGAAGTGC'
p2560
tp2561
a(g287
S'TTTGCATAAAATGTGATC'
p2562
tp2563
a(g772
S'ATCCGGTAGTAGGCAACG'
p2564
tp2565
a(S'GCCAGATTTTAGTATTAC'
p2566
S'GCCAGATTTTAGCATTAC'
p2567
tp2568
a(S'CACAAGGCTTTCTTCGTT'
p2569
S'CACAAGGTTTTCTTCGTT'
p2570
tp2571
a(S'TTACGAGGGCGTGTCAGC'
p2572
S'TTACGAGGGTGTGTCAGC'
p2573
tp2574
a(S'GCTCAAACGAAACGGGAG'
p2575
S'GCTCCAACGAAACGGGAG'
p2576
tp2577
a(S'AGACATTTATCGTTAATG'
p2578
g1043
tp2579
a(S'TATTACTGAGGGCGTTAG'
p2580
S'TATTACTGAGGGTGTTAG'
p2581
tp2582
a(S'GGTGTACGTCCCAAAAGA'
p2583
S'GGCGTACGTCCCAAAAGA'
p2584
tp2585
a(S'CCTTCAGCCAGGACCACG'
p2586
S'CCTTCAGACAGGACCACG'
p2587
tp2588
a(S'TGGGACGATGAGAGGACC'
p2589
S'TGGGCCGATGAGAGGACC'
p2590
tp2591
a(S'GGAGCCAGGTGGCACATG'
p2592
S'GGAGTCAGGTGGCACATG'
p2593
tp2594
a(S'AGTGAGTCGTGCCCACCA'
p2595
S'AGCGAGTCGTGCCCACCA'
p2596
tp2597
a(S'GCAGGGAACTACAGGCAG'
p2598
S'GCAGGGAACTACAGGTAG'
p2599
tp2600
a(S'CCAGCATTGTTCGGGTCA'
p2601
S'CCAGTATTGTTCGGGTCA'
p2602
tp2603
a(S'GGCGCAGATGCCCATTGG'
p2604
S'GGTGCAGATGCCCATTGG'
p2605
tp2606
a(S'GGCTGCCGCATATTGCCC'
p2607
S'GGCCGCCGCATATTGCCC'
p2608
tp2609
a(g2607
S'GGCAGCCGCATATTGCCC'
p2610
tp2611
a(S'AAAGCGCATTCTTTACTA'
p2612
S'AAAGCGCATTTTTTACTA'
p2613
tp2614
a(S'AAAACTTGTACGTTGTAA'
p2615
S'AAAAATTGTACGTTGTAA'
p2616
tp2617
a(g2309
g2311
tp2618
a(S'GGCGGGTTGGGGCCAGTG'
p2619
S'GGCGGGCTGGGGCCAGTG'
p2620
tp2621
a(S'GGGCGGGGATGAGGGAGG'
p2622
g583
tp2623
a(S'AAAGGCTCGTGCGGGGTT'
p2624
S'AAAGGCCCGTGCGGGGTT'
p2625
tp2626
a(S'GCGGCGGAGCGTGATGAA'
p2627
S'GCGGCGGAGCGCGATGAA'
p2628
tp2629
a(S'CTGGTGGTGGATGCTGCT'
p2630
S'CTGGCGGTGGATGCTGCT'
p2631
tp2632
a(g2630
S'CTGGAGGTGGATGCTGCT'
p2633
tp2634
a(S'GGGAGAGTGATTAAAGCA'
p2635
S'GGGAGAGCGATTAAAGCA'
p2636
tp2637
a(S'TGGTTCGATAGGGCGTCG'
p2638
S'TGGTTCGATATGGCGTCG'
p2639
tp2640
a(S'TGATGGGGGCGTGTAGCG'
p2641
S'TGAGGGGGGCGTGTAGCG'
p2642
tp2643
a(S'CGCAGCCTTCCTAGCCCA'
p2644
S'CGTAGCCTTCCTAGCCCA'
p2645
tp2646
a(S'ATCGCCATCGGGCGTTGC'
p2647
S'ATCGCCATCGGGTGTTGC'
p2648
tp2649
a(S'TTTTAGTGTCAAATGTAT'
p2650
S'TTTTCGTGTCAAATGTAT'
p2651
tp2652
a(S'AGACGACACGGCTGCACC'
p2653
S'AGACTACACGGCTGCACC'
p2654
tp2655
a(S'AAGCATAAGGGCCAAGAG'
p2656
S'AAGCATAAGGGTCAAGAG'
p2657
tp2658
a(S'TCTATGTCAGACAGAATA'
p2659
S'TCCATGTCAGACAGAATA'
p2660
tp2661
a(S'GGGATGAGACGCGGAGGA'
p2662
S'GGGATGAGACGCGGGGGA'
p2663
tp2664
a(S'CACGGCTCGGAGGGTAGT'
p2665
S'CACGGCTCGGAGGGGAGT'
p2666
tp2667
a(S'ATGGCGGGACATTACGGG'
p2668
S'ATGGCGGGACATTACGGT'
p2669
tp2670
a(S'TCAAGTGAGAAAGCCAGT'
p2671
S'TCGAGTGAGAAAGCCAGT'
p2672
tp2673
a(S'AAGTGGCATACCGCAGGA'
p2674
S'GAGTGGCATACCGCAGGA'
p2675
tp2676
a(S'TCGAATCATCATGCCAAA'
p2677
S'TCGAATCGTCATGCCAAA'
p2678
tp2679
a(S'CTACTGGTTTGGGTTGCA'
p2680
S'CTACTGGTTTGGGTTGCT'
p2681
tp2682
a(S'CGGGTACAGGCGACGTAT'
p2683
S'CGGGTACAGGTGACGTAT'
p2684
tp2685
a(S'TTGGCGTGTGGGGACTAG'
p2686
S'TTGGAGTGTGGGGACTAG'
p2687
tp2688
a(g2686
S'TTGGTGTGTGGGGACTAG'
p2689
tp2690
a(g314
g316
tp2691
a(g1774
S'ACGGCAGGTTCCGTACGG'
p2692
tp2693
a(S'GGTGCGCGGTGATGTTCA'
p2694
S'GGTGTGCGGTGATGTTCA'
p2695
tp2696
a(S'GGTGCCATCATCTGTTGG'
p2697
S'GGTGACATCATCTGTTGG'
p2698
tp2699
a(S'CCTTTTACTTCCCTCTTT'
p2700
S'ACTTTTACTTCCCTCTTT'
p2701
tp2702
a(S'ATGCCCCGGTAAGTAACC'
p2703
S'ATGGCCCGGTAAGTAACC'
p2704
tp2705
a(g2703
S'ATGTCCCGGTAAGTAACC'
p2706
tp2707
a(S'AAAGTCGTTGAGGATGTT'
p2708
S'AAAGCCGTTGAGGATGTT'
p2709
tp2710
a(S'GTCGTTATTTGGACCTTA'
p2711
S'GTCGCTATTTGGACCTTA'
p2712
tp2713
a(S'CGGGAACAGGTGACGTAT'
p2714
g2684
tp2715
a(S'GCCTGGGGGTATGATTTT'
p2716
S'GCCTGGGGGCATGATTTT'
p2717
tp2718
a(S'GAATCGGTGGCGAGGGAA'
p2719
S'GAATCGGTGGTGAGGGAA'
p2720
tp2721
a(S'GGGTGTTCTGTGTGATCG'
p2722
S'GGGCGTTCTGTGTGATCG'
p2723
tp2724
a(S'ACGAAGCGGCCTATTGCC'
p2725
S'ACGAAGCGGACTATTGCC'
p2726
tp2727
a(S'AAGGATTTTTGAGCGTAG'
p2728
S'AAGGCTTTTTGAGCGTAG'
p2729
tp2730
a(S'ATAGTATAAACGGCTACC'
p2731
S'ATAGCATAAACGGCTACC'
p2732
tp2733
a(S'GGGAGGCCAGTGACAGAC'
p2734
S'GGGTGGCCAGTGACAGAC'
p2735
tp2736
a(g2734
S'GGGCGGCCAGTGACAGAC'
p2737
tp2738
a(S'GCGTCCTACTAGTGTATG'
p2739
S'GCGTCCTACTAGCGTATG'
p2740
tp2741
a(S'GGGGTCAATAATAGGAAT'
p2742
S'GGGGCCAATAATAGGAAT'
p2743
tp2744
a(S'GTCGCGATGTAACTGAAG'
p2745
S'GTCGAGATGTAACTGAAG'
p2746
tp2747
a(g2745
S'GTCGTGATGTAACTGAAG'
p2748
tp2749
a(S'GTCTGAAAAGCATTCTCA'
p2750
S'GTCTGAAAAGTATTCTCA'
p2751
tp2752
a(S'GAGCGGCATACCGCAGGA'
p2753
g2675
tp2754
a(S'AGCGTCAACTTCTATGAC'
p2755
S'AGCGCCAACTTCTATGAC'
p2756
tp2757
a(S'TGCGGTGCCGGCGGGGGG'
p2758
S'TGCGGTGCCGGCGGGGGA'
p2759
tp2760
a(S'CTTTGCGGCATGCTAATA'
p2761
S'CTATGCGGCATGCTAATA'
p2762
tp2763
a(S'TTAGCCAGCGTCAATAAG'
p2764
S'TTAGTCAGCGTCAATAAG'
p2765
tp2766
a(S'TCAATACAATTTCGTTTC'
p2767
S'TCAATACAATGTCGTTTC'
p2768
tp2769
a(S'GGGGATTCGTTGTCCTGT'
p2770
g1126
tp2771
a(g2770
S'GGGGCTTCGTTGTCCTGT'
p2772
tp2773
a(S'CGCGCGGAGATGTATATT'
p2774
S'CGCGCGGTGATGTATATT'
p2775
tp2776
a(S'CGGGTATTACATGTTAGC'
p2777
S'CGGGCATTACATGTTAGC'
p2778
tp2779
a(S'ATACACTGAGTAGAAGAG'
p2780
S'ATACCCTGAGTAGAAGAG'
p2781
tp2782
a(S'TGGGCACTTGATGATCAC'
p2783
S'TGGGAACTTGATGATCAC'
p2784
tp2785
a(S'TTCAGGGGTGTGAGGAAG'
p2786
S'TTCAGGGGCGTGAGGAAG'
p2787
tp2788
a(S'CCGCAGAGACAATCTTAT'
p2789
S'CCGCAGAGACAATCTTAG'
p2790
tp2791
a(S'TGAGTGTAGATCTTGTAT'
p2792
S'TGAGCGTAGATCTTGTAT'
p2793
tp2794
a(S'TTCCTGTGGTGCGCGGTG'
p2795
S'TTCCTGTGGTGCGCGGGG'
p2796
tp2797
a(S'CGGGGAGCAAGGGCGGTT'
p2798
S'CGGGGAGCAAGGGTGGTT'
p2799
tp2800
a(S'CCATAGCACTGGAGCCGA'
p2801
S'CCATCGCACTGGAGCCGA'
p2802
tp2803
a(S'ACGGGCTCGGAGGGGGGG'
p2804
S'ACGGGCTCGGCGGGGGGG'
p2805
tp2806
a(S'ACACAACCAGGGTGGATA'
p2807
S'ACACAACCAGGGCGGATA'
p2808
tp2809
a(S'CCTGACTCCTGCCCATGC'
p2810
S'CCTGGCTCCTGCCCATGC'
p2811
tp2812
a(S'TTGGCCATGGCAAAACCT'
p2813
S'TTGGTCATGGCAAAACCT'
p2814
tp2815
a(S'TGTCGGGTATGAGTTTCT'
p2816
S'TGTCGGGCATGAGTTTCT'
p2817
tp2818
a(S'TAAAGAGGGGGAGGAACG'
p2819
S'TAAAGAGGTGGAGGAACG'
p2820
tp2821
a(S'TAACAGAAGATCTAGGAT'
p2822
S'TAACCGAAGATCTAGGAT'
p2823
tp2824
a(S'GGGAGGGGGTCTCCGCTA'
p2825
S'GGGCGGGGGTCTCCGCTA'
p2826
tp2827
a(S'GGCGGTGCGATAAGAGCG'
p2828
S'GGCGGCGCGATAAGAGCG'
p2829
tp2830
a(S'CACCCCGAAAAATATAAT'
p2831
S'CACCCCGCAAAATATAAT'
p2832
tp2833
a(S'TCTGAGGCGGGACACCTA'
p2834
S'TCTGAGGCGGGACACTTA'
p2835
tp2836
a(S'CGTCGTTAGGAGATGCAC'
p2837
S'CGTTGTTAGGAGATGCAC'
p2838
tp2839
a(S'CTGCCTCTATGCGATGCT'
p2840
S'CTGCCTCTATGTGATGCT'
p2841
tp2842
a(S'CATCTGTGTTTACGTAAC'
p2843
S'CATCCGTGTTTACGTAAC'
p2844
tp2845
a(S'GGCCGCCGCATATCGCCC'
p2846
g2608
tp2847
a(S'AGGCTTTTTTCTCGTACA'
p2848
S'AGGATTTTTTCTCGTACA'
p2849
tp2850
a(S'GCCGCAGCTGTTATCGCT'
p2851
S'ACCGCAGCTGTTATCGCT'
p2852
tp2853
a(S'AATCTGGCAGTATAGCTT'
p2854
S'AATCTGGTAGTATAGCTT'
p2855
tp2856
a(S'GCGGTAGAGATGCCTTCT'
p2857
S'GCGGAAGAGATGCCTTCT'
p2858
tp2859
a(S'AGATCAGCTACATCATCA'
p2860
S'AGATAAGCTACATCATCA'
p2861
tp2862
a(S'TGGATCTGGTAGGGAAGA'
p2863
S'TGGATCTGGCAGGGAAGA'
p2864
tp2865
a(S'GCCAATATGCTGTAGCGG'
p2866
S'GCCACTATGCTGTAGCGG'
p2867
tp2868
a(S'GGGCTATGGGGTATTGGT'
p2869
S'GGGCTATGGGGCATTGGT'
p2870
tp2871
a(S'CCGAATGGAGACTGATGA'
p2872
S'CTGAATGGAGACTGATGA'
p2873
tp2874
a(S'TGCGCCGCGGATATAACC'
p2875
S'TGCGCTGCGGATATAACC'
p2876
tp2877
a(S'GAGACACAAAGAACTTTA'
p2878
S'GAGACACAAAGTACTTTA'
p2879
tp2880
a(S'TCCCCGAACACCGCTACA'
p2881
S'TCCCCGAACACCACTACA'
p2882
tp2883
a(S'GAGAAGGCTGCCGTTGAC'
p2884
S'GAGAAGGTTGCCGTTGAC'
p2885
tp2886
a(S'ATATGCACGTGGAAGTAC'
p2887
S'ATATGCACGTGTAAGTAC'
p2888
tp2889
a(S'CGAGCAGAGCGAGGGTAT'
p2890
g954
tp2891
a(S'CGTTTTTCCATGCATTAG'
p2892
S'CGTTTTTCCATGTATTAG'
p2893
tp2894
a(S'AAGGAAAGGGCGGATAAG'
p2895
S'AAGGCAAGGGCGGATAAG'
p2896
tp2897
a(g2895
S'AAGGTAAGGGCGGATAAG'
p2898
tp2899
a(S'TAATGAACCCAAAAAAGG'
p2900
S'TGATGAACCCAAAAAAGG'
p2901
tp2902
a(S'GTGAATTTAATGGCCCTT'
p2903
S'GTGACTTTAATGGCCCTT'
p2904
tp2905
a(S'AGCTTTGCTGTACGGGAC'
p2906
S'CGCTTTGCTGTACGGGAC'
p2907
tp2908
a(S'ACTTTGAGCACTGCATAA'
p2909
S'CCTTTGAGCACTGCATAA'
p2910
tp2911
a(S'ATCAGGGCGAAGTGTAAT'
p2912
S'ATCAGGGTGAAGTGTAAT'
p2913
tp2914
a(S'AGGTAAGGATAATTAGCC'
p2915
S'AGGCAAGGATAATTAGCC'
p2916
tp2917
a(S'TCTGTGCGTAGGAAATAT'
p2918
S'TCTGCGCGTAGGAAATAT'
p2919
tp2920
a(S'CGTCGGCGGGTGCGACTG'
p2921
S'CGTCGGCGGGGGCGACTG'
p2922
tp2923
a(S'GAGCGCAAAATTAACTAA'
p2924
S'GAGTGCAAAATTAACTAA'
p2925
tp2926
a(S'ATCGGTGGGCACTTGTGC'
p2927
S'ATCGGTGGGTACTTGTGC'
p2928
tp2929
a(S'AGGCACTTGTCACGGCAA'
p2930
S'AGGTACTTGTCACGGCAA'
p2931
tp2932
a(S'ACACCATAGGAACATCAC'
p2933
S'ACACCATAGGAACATTAC'
p2934
tp2935
a(S'GATGCGGTAGGTGTACCA'
p2936
S'GATGAGGTAGGTGTACCA'
p2937
tp2938
a(g2936
S'GATGCGGTAGGTGTACTA'
p2939
tp2940
a(S'ACTCAAGTTAACGTTAAG'
p2941
S'ACTCAAGTTAACGTCAAG'
p2942
tp2943
a(S'ACGGAGTTCGGGGATGTA'
p2944
S'ACGGCGTTCGGGGATGTA'
p2945
tp2946
a(g2107
S'ACGGCGACACAGCACCGG'
p2947
tp2948
a(S'GGCTCCCCGGTCCATCCG'
p2949
S'GGCTGCCCGGTCCATCCG'
p2950
tp2951
a(S'CGAACCCTAGGAGGCACA'
p2952
S'CGAACCCTAGGCGGCACA'
p2953
tp2954
a(g2952
S'CGAACCCTAGGTGGCACA'
p2955
tp2956
a(g2687
g2689
tp2957
a(S'GGAGTAGAAAGTCTGTAG'
p2958
S'GGAGCAGAAAGTCTGTAG'
p2959
tp2960
a(S'TCGAAGGGAATGCGCAAC'
p2961
S'TCGAAGGGTATGCGCAAC'
p2962
tp2963
a(S'TTAGAGACGCGTTCCGGC'
p2964
S'TTAGAGACGCGTTACGGC'
p2965
tp2966
a(S'TCCCCCCCGGGACCTGGC'
p2967
S'TCCCCCCCGGGACCTAGC'
p2968
tp2969
a(S'CTTGTATACAAACATCCT'
p2970
S'CTTGAATACAAACATCCT'
p2971
tp2972
a(S'ATAGCGAAATTAGCGTTA'
p2973
S'ATAGAGAAATTAGCGTTA'
p2974
tp2975
a(S'TAGGAAAAGAATCACAAT'
p2976
S'TAGGAAAAGTATCACAAT'
p2977
tp2978
a(S'ATTATCTATTTAGCGCTT'
p2979
S'ATTATCTATTTAGCGTTT'
p2980
tp2981
a(g1823
g1825
tp2982
a(S'ATAAGTACGGTAGACTTC'
p2983
S'ATAAGTACGGCAGACTTC'
p2984
tp2985
a(S'CGGCGGCGTGGTTGACCA'
p2986
S'CGGTGGCGTGGTTGACCA'
p2987
tp2988
a(S'TTATGTATTTTGCTGCGG'
p2989
S'TTATGTATTCTGCTGCGG'
p2990
tp2991
a(S'AAGGCTACTCTCGAGGAC'
p2992
S'AAGGCTACTCTCTAGGAC'
p2993
tp2994
a(S'AGGGCGAGGGCATGTGAG'
p2995
S'AGGGTGAGGGCATGTGAG'
p2996
tp2997
a(S'GCTAATCTCAGTACGCCG'
p2998
S'GTTAATCTCAGTACGCCG'
p2999
tp3000
a(S'AAAGCGCGCCTAGTCGAC'
p3001
S'AAAGTGCGCCTAGTCGAC'
p3002
tp3003
a(S'GCGCTCGGGTGTTTCTCC'
p3004
S'GCGCTCGGGAGTTTCTCC'
p3005
tp3006
a(S'GGGGATGGGCAGTTTATA'
p3007
S'GGGGCTGGGCAGTTTATA'
p3008
tp3009
a(S'TATGGGCAGGCGTTGGGG'
p3010
S'TATGGGCAGGTGTTGGGG'
p3011
tp3012
a(S'TGCCGAACCTATCGCCAG'
p3013
S'TGCCGCACCTATCGCCAG'
p3014
tp3015
a(g1866
S'TGTAAAGGCGCATTTGGT'
p3016
tp3017
a(g1866
S'TGTAAAGGAGCATTTGGT'
p3018
tp3019
a(S'AATCGGTTGGTGGGCCAG'
p3020
S'AATCGGTTGGGGGGCCAG'
p3021
tp3022
a(S'TAGGTGATGGAAAGTCTC'
p3023
S'TAGGCGATGGAAAGTCTC'
p3024
tp3025
a(S'GTCGCGTCCCACGGGTTA'
p3026
S'GTCGGGTCCCACGGGTTA'
p3027
tp3028
a(S'AGAGCCTTTAGTATAATT'
p3029
S'AGAGACTTTAGTATAATT'
p3030
tp3031
a(S'GCAAAATGCCGGCGAAAT'
p3032
S'GCAAAATGCAGGCGAAAT'
p3033
tp3034
a(S'TCTGTAGGGACGCATATA'
p3035
g919
tp3036
a(g1965
g1967
tp3037
a(S'GCTCAAGGATGCGTCACA'
p3038
S'GCTCAAGGTTGCGTCACA'
p3039
tp3040
a(S'TCGGATGTAGATTGGGTA'
p3041
S'TCGGCTGTAGATTGGGTA'
p3042
tp3043
a(S'AGTGGCATGGCATAGTGC'
p3044
S'AGTGGCATGGAATAGTGC'
p3045
tp3046
a(S'AAGTATTTCCCTAACCGT'
p3047
S'AAGCATTTCCCTAACCGT'
p3048
tp3049
a(S'GCCATTCGTGTACGGGGC'
p3050
S'GCCATTCGTGTACGGGGT'
p3051
tp3052
a(S'CATCAGACGGTGGTACTT'
p3053
S'CATCAGACGGTGGCACTT'
p3054
tp3055
a(S'CAGCTTCAGACGGCAGGG'
p3056
S'CAGCTTCAGACGGTAGGG'
p3057
tp3058
a(S'GGGAGGCCTACGGCGAGG'
p3059
S'GGGCGGCCTACGGCGAGG'
p3060
tp3061
a(g3059
S'GGGTGGCCTACGGCGAGG'
p3062
tp3063
a(S'CGAAAATAGAAAGTGTGT'
p3064
S'CGAAAATAGAAAGCGTGT'
p3065
tp3066
a(S'TGCGCTGCAAATTTACGA'
p3067
S'TGCGCTGCAACTTTACGA'
p3068
tp3069
a(S'GTGGGGGACAGGGTGTGG'
p3070
S'GTGGGGGACAGGGCGTGG'
p3071
tp3072
a(g3070
S'GTGGGGGACAGTGTGTGG'
p3073
tp3074
a(S'AACATGGCACAGCGCGTC'
p3075
S'AACATGGCACAGCGCGCC'
p3076
tp3077
a(S'GTGGGGGCAATATGCACG'
p3078
S'GCGGGGGCAATATGCACG'
p3079
tp3080
a(S'CGCATTCATTGATTAGAA'
p3081
S'CGCATTCATTGATCAGAA'
p3082
tp3083
a(S'CACGTACTGTCACGTAAA'
p3084
S'CACGCACTGTCACGTAAA'
p3085
tp3086
a(S'GAAATAGGACAGGGCGCG'
p3087
S'GAAATAGGACAGGGTGCG'
p3088
tp3089
a(S'ATTCCAACAGGTATTTTT'
p3090
S'ATTCCAACAGGCATTTTT'
p3091
tp3092
a(S'TAGTAGCGGTTAACTCCC'
p3093
S'TAGTAGCGGTTAACTCTC'
p3094
tp3095
a(S'AGGGCTGCCGATCTTCAT'
p3096
S'AGGGATGCCGATCTTCAT'
p3097
tp3098
a(S'GATTCGGGGCGGTAGATC'
p3099
S'GATTCGGGGCGGCAGATC'
p3100
tp3101
a(S'GAGTAACAAAGAGTACAA'
p3102
S'GAGTCACAAAGAGTACAA'
p3103
tp3104
a(g3102
S'GAGTAACAAAGAGCACAA'
p3105
tp3106
a(S'TTTTGCCGCTAGGAAGGG'
p3107
S'TTTTGCCGCTAGGACGGG'
p3108
tp3109
a(S'TAGGCCCATTAGTTGGTG'
p3110
S'TAGGTCCATTAGTTGGTG'
p3111
tp3112
a(S'GCAGGTGAATATAAGTCC'
p3113
S'GCAGGCGAATATAAGTCC'
p3114
tp3115
a(S'GAAATCGTTTGTGCAACC'
p3116
S'GACATCGTTTGTGCAACC'
p3117
tp3118
a(S'GATGGAGTTAAAACTTCA'
p3119
S'GATGGTGTTAAAACTTCA'
p3120
tp3121
a(S'GTGTAAAGGTGTGGGGGC'
p3122
S'GTGTAAAGGCGTGGGGGC'
p3123
tp3124
a(S'GTTGAGTGCGGGTAGGGG'
p3125
S'GTTGAGTGCGGGCAGGGG'
p3126
tp3127
a(S'GAAGTGATTGAAGGGCGG'
p3128
S'GAAGAGATTGAAGGGCGG'
p3129
tp3130
a(S'GTAGCGCACAGAACGGGG'
p3131
S'GTAGCGCACAGAAAGGGG'
p3132
tp3133
a(g2608
g2610
tp3134
a(S'GCTGGTAGAGGCTTGCTG'
p3135
S'GATGGTAGAGGCTTGCTG'
p3136
tp3137
a(S'TTTAGACGTGCGAAAGGT'
p3138
S'TTTAGACGCGCGAAAGGT'
p3139
tp3140
a(S'GGCAAAGGCAGTCATCAA'
p3141
S'GGCAAAGGTAGTCATCAA'
p3142
tp3143
a(S'TCATCCGACAACGTATCA'
p3144
S'TCATACGACAACGTATCA'
p3145
tp3146
a(S'GGTTAGACTTACACTACA'
p3147
S'GGCTAGACTTACACTACA'
p3148
tp3149
a(S'ATATCTTCTAAATAAGGC'
p3150
S'ATATCTTCTAAATAAGGT'
p3151
tp3152
a(g3151
S'ATATATTCTAAATAAGGT'
p3153
tp3154
a(S'AAGGTCGTGTAGAGGCAC'
p3155
S'AAGGCCGTGTAGAGGCAC'
p3156
tp3157
a(S'GAGTCTGATTTTTTCCGT'
p3158
S'GAGTCTGATTTTTTCCGG'
p3159
tp3160
a(S'GCTGGAGGGACGGGTGGA'
p3161
S'GCTGGAGGGACGGGGGGA'
p3162
tp3163
a(S'GGTGGCAGTCGTTTGTTA'
p3164
S'GGTGGTAGTCGTTTGTTA'
p3165
tp3166
a(S'ATCGCAGTGCGTTCGTGC'
p3167
S'ATCGAAGTGCGTTCGTGC'
p3168
tp3169
a(S'CGGAGCATACCCCTGAAC'
p3170
S'CGGTGCATACCCCTGAAC'
p3171
tp3172
a(S'GTGGTTTTGTGATGGAAA'
p3173
S'GTGGCTTTGTGATGGAAA'
p3174
tp3175
a(S'TTCTAGAGATGGTTAATC'
p3176
S'TTCTCGAGATGGTTAATC'
p3177
tp3178
a(S'AGTATAGGCGGTGGCGGT'
p3179
S'AGTATAGGTGGTGGCGGT'
p3180
tp3181
a(S'AGCCGGAACGGGTCTTAT'
p3182
S'GGCCGGAACGGGTCTTAT'
p3183
tp3184
a(S'GAGCTGATAGGTAGTAAG'
p3185
S'GAGTTGATAGGTAGTAAG'
p3186
tp3187
a(S'GGTGGTAGTAGTTTGTTA'
p3188
g3165
tp3189
a(S'CCCTAGGGCGTCAGCCTA'
p3190
S'CCCTAGGGTGTCAGCCTA'
p3191
tp3192
a(S'CTTTACAGCGCCTGGGTC'
p3193
S'CTTTACAGCGCCTGGGCC'
p3194
tp3195
a(S'TCGACTAGTTTTGAGCCC'
p3196
S'TCGAATAGTTTTGAGCCC'
p3197
tp3198
a(S'GTACACATGAACCAAACC'
p3199
S'GCACACATGAACCAAACC'
p3200
tp3201
a(g1057
g1059
tp3202
a(g1057
g1061
tp3203
a(S'AAAGTAGCTTATTGGCTT'
p3204
S'AAAGCAGCTTATTGGCTT'
p3205
tp3206
a(S'AGTGGAGGAGACATTGCC'
p3207
S'AGTGGAGGTGACATTGCC'
p3208
tp3209
a(g3207
S'AGTGGAGGCGACATTGCC'
p3210
tp3211
a(g1339
g1341
tp3212
a(S'GCCAGGGGCGGCGCGGCC'
p3213
S'GCCAGGGGCGGTGCGGCC'
p3214
tp3215
a(S'GATTGGCATATATAGAGA'
p3216
S'GATTGGCATACATAGAGA'
p3217
tp3218
a(S'CAGAGTCCTTTTAGCAGT'
p3219
S'CAGAGTCCTTTTAGTAGT'
p3220
tp3221
a(S'AAAAGCAATGCTGGCTTG'
p3222
S'AAAAGCAATGCTGGTTTG'
p3223
tp3224
a(S'TCTGGTCATGGTTGACCA'
p3225
g1886
tp3226
a(g210
g212
tp3227
a(S'GACAGAGCAAGGGGAGGT'
p3228
S'GACAGAGCAATGGGAGGT'
p3229
tp3230
a(S'TCTAATCTGGGCGGAATT'
p3231
S'TCTAATCTGGGTGGAATT'
p3232
tp3233
a(g3231
S'TCTAATCTGGGAGGAATT'
p3234
tp3235
a(S'GGATGCGCCATGGCTAGG'
p3236
S'GGATGCGCCATGGTTAGG'
p3237
tp3238
a(S'AAGGTATTGTATTAACCG'
p3239
S'AAGGAATTGTATTAACCG'
p3240
tp3241
a(S'TATGTCATACTATAAAAT'
p3242
S'TATGCCATACTATAAAAT'
p3243
tp3244
a(S'CGGAGAGTGGGATAGTGG'
p3245
S'CGGAGAGCGGGATAGTGG'
p3246
tp3247
a(S'GCAAGCAGGCCTAGTTCG'
p3248
S'GCAAGCAGGTCTAGTTCG'
p3249
tp3250
a(g3248
S'GCAAGCAGGACTAGTTCG'
p3251
tp3252
a(S'GATGGGAGTAGCATGCGG'
p3253
S'GATGGGAGTAGCATGTGG'
p3254
tp3255
a(S'AGTACTCAATCTAGAGGT'
p3256
S'AGCACTCAATCTAGAGGT'
p3257
tp3258
a(S'TAACCGTCATACCCGTAA'
p3259
S'TAACAGTCATACCCGTAA'
p3260
tp3261
a(S'CGAAAAAGTAACCCACCC'
p3262
S'CGAACAAGTAACCCACCC'
p3263
tp3264
a(S'AGGGTACTGTACCATGGC'
p3265
S'AGGGAACTGTACCATGGC'
p3266
tp3267
a(g3265
S'ATGGTACTGTACCATGGC'
p3268
tp3269
a(S'TGGGGACCGACGGCTGCT'
p3270
S'TGGGGACCAACGGCTGCT'
p3271
tp3272
a(S'GTGGTTAGATATCTGGTA'
p3273
S'GTGGCTAGATATCTGGTA'
p3274
tp3275
a(g3273
S'GCGGTTAGATATCTGGTA'
p3276
tp3277
a(S'TCCTGAAGTGTATTATGA'
p3278
S'TCCTGAAGCGTATTATGA'
p3279
tp3280
a(g3278
S'TCCTGAAGTGCATTATGA'
p3281
tp3282
a(S'GTTCTTTTTGCTCGATAG'
p3283
S'GTTCTTTTTGCTCGATAT'
p3284
tp3285
a(S'TGAGGTCCCAGCGAAGGT'
p3286
S'TGAGGCCCCAGCGAAGGT'
p3287
tp3288
a(S'TAAGGTTGTCCTCTCATG'
p3289
S'TTAGGTTGTCCTCTCATG'
p3290
tp3291
a(S'TGGATTCTATATATTCGT'
p3292
S'TGGCTTCTATATATTCGT'
p3293
tp3294
a(S'ACCATCCGGAACAGTGCA'
p3295
S'ACCATCCGGAACAGTGTA'
p3296
tp3297
a(S'ACTTTTGCGGTTTACAGT'
p3298
S'ACTTTTGCGGTTTATAGT'
p3299
tp3300
a(S'GTATGGGGGCGGTCCCTA'
p3301
S'GTATGTGGGCGGTCCCTA'
p3302
tp3303
a(S'GTAGCATTAGCGCGTACT'
p3304
S'GTAGTATTAGCGCGTACT'
p3305
tp3306
a(S'CGATGGAGGGGGGGTTCC'
p3307
S'AGATGGAGGGGGGGTTCC'
p3308
tp3309
a(S'TACTCGCCACACAGGGGA'
p3310
S'TACCCGCCACACAGGGGA'
p3311
tp3312
a(S'GGGTGCTAACAATTTGTC'
p3313
S'GGGCGCTAACAATTTGTC'
p3314
tp3315
a(S'AGGACATGGGGTTGGGGC'
p3316
S'AGGACATGGGGTTGGGGT'
p3317
tp3318
a(S'CCCACGGCGGGTGTTGGC'
p3319
S'CCCACGGCGGGGGTTGGC'
p3320
tp3321
a(S'AATCGTCCTGACCGCAAT'
p3322
S'AATCGTCCTAACCGCAAT'
p3323
tp3324
a(S'TGACGGCGGCTCGACAAG'
p3325
S'TGGCGGCGGCTCGACAAG'
p3326
tp3327
a(g2704
g2706
tp3328
a(S'GGAGGCGTTGTGGCGGCA'
p3329
S'GGAGGCGTTGTGGCGGGA'
p3330
tp3331
a(g415
g417
tp3332
a(S'GAAGATGGGGGCGAAGGG'
p3333
S'GAAGCTGGGGGCGAAGGG'
p3334
tp3335
a(S'ATTAACTTGTGGGTCAAC'
p3336
S'ATTAACTTGCGGGTCAAC'
p3337
tp3338
a(S'CCACAAAAAAGCACCTTA'
p3339
S'TCACAAAAAAGCACCTTA'
p3340
tp3341
a(S'CTGGCGCAGTGTGCATAG'
p3342
S'CTGGTGCAGTGTGCATAG'
p3343
tp3344
a(S'GATTAGGCACATGTTGTA'
p3345
S'GATTAGGTACATGTTGTA'
p3346
tp3347
a(S'TGCGAAGTATCATGGAGT'
p3348
S'TGTGAAGTATCATGGAGT'
p3349
tp3350
a(S'AATAAGGCAGCCGAGTAA'
p3351
S'AATAAGGCAGCCGTGTAA'
p3352
tp3353
a(S'GACATATCACCGGGGCAT'
p3354
S'GACATATCACCGGGGTAT'
p3355
tp3356
a(S'CAGGGGGGCGTCATGTCG'
p3357
S'CAGGGGGGCGCCATGTCG'
p3358
tp3359
a(S'TCATATGTTTCTTAATTG'
p3360
S'TCATATGTTTCTTAATTT'
p3361
tp3362
a(g3060
g3062
tp3363
a(S'GGAAAGCACGTCCAACGA'
p3364
g1010
tp3365
a(S'AGCGCCGTGCTGGGGAAC'
p3366
S'AGCGCCGTGCTGGGGTAC'
p3367
tp3368
a(g2528
g2530
tp3369
a(S'GCATAGCATGGCCTTAAT'
p3370
S'GCATAGTATGGCCTTAAT'
p3371
tp3372
a(S'TATGAGCAGCCATAAGTA'
p3373
S'TATGTGCAGCCATAAGTA'
p3374
tp3375
a(S'GCTGCGGCAAGGGCGTGG'
p3376
S'GCTGCGGCAAGGGTGTGG'
p3377
tp3378
a(g343
g345
tp3379
a(S'TTTGTTCAGATAAGTTAT'
p3380
S'TTTGCTCAGATAAGTTAT'
p3381
tp3382
a(S'TGCAGATATTTCTTTCCT'
p3383
S'TGCAGATATTTCTTTCCC'
p3384
tp3385
a(S'AGCAGGCGTTGGGAGTGG'
p3386
S'AGCAGGAGTTGGGAGTGG'
p3387
tp3388
a(S'TGTTACCAGCCCCACCGA'
p3389
S'TGTTACCAGCTCCACCGA'
p3390
tp3391
a(S'CGAGGGGTATTAAAAATC'
p3392
S'CGAGGGGCATTAAAAATC'
p3393
tp3394
a(S'GGAGTCAGGCGGCACATG'
p3395
g2593
tp3396
a(S'GTAAAGCCACAGAGGTAG'
p3397
S'GTAAAGCCACAGAGGCAG'
p3398
tp3399
a(S'GTGGCGGAATGTTAGTGG'
p3400
S'GTGGCGGCATGTTAGTGG'
p3401
tp3402
a(g3400
S'GTGGCGGAATGTTAGTTG'
p3403
tp3404
a(S'AAGGGCCTCTCCGTGTAC'
p3405
S'AAGAGCCTCTCCGTGTAC'
p3406
tp3407
a(S'TGGGGATGGGTGTTTCGT'
p3408
S'TGGGGTTGGGTGTTTCGT'
p3409
tp3410
a(g2189
g2191
tp3411
a(g1458
S'TCTGCGGGGTAGTCCGCC'
p3412
tp3413
a(S'AACATGGGTAAAACGTGC'
p3414
S'AACACGGGTAAAACGTGC'
p3415
tp3416
a(S'CAAAGAGATGTGTGGGGC'
p3417
S'CAAAGTGATGTGTGGGGC'
p3418
tp3419
a(S'TCAAAAAAAGAGATGCAC'
p3420
S'TCAAAAAAAGTGATGCAC'
p3421
tp3422
a(S'GTACACGGGGTTGGACGC'
p3423
S'GTACACGGGGCTGGACGC'
p3424
tp3425
a(S'GTGGCACGAGCCAGGGGT'
p3426
S'GTGGAACGAGCCAGGGGT'
p3427
tp3428
a(S'ATGGTAAGGAATCGACCC'
p3429
S'ATGGCAAGGAATCGACCC'
p3430
tp3431
a(S'CGCACTCCCGGGGCTCGC'
p3432
S'CGCACTCCCGGGGTTCGC'
p3433
tp3434
a(S'GATACGCGTGCGTTGTAC'
p3435
S'GATACGTGTGCGTTGTAC'
p3436
tp3437
a(S'CGGATTATTCATGCCCGT'
p3438
S'CGGATTATTCATGCTCGT'
p3439
tp3440
a(g1881
g1883
tp3441
a(S'CTGTGACGCGGTGGTCAT'
p3442
S'CTGCGACGCGGTGGTCAT'
p3443
tp3444
a(S'AAACTTTGATGATAAGGC'
p3445
S'AAAATTTGATGATAAGGC'
p3446
tp3447
a(S'GCCAGCTGTGCCGAGCTG'
p3448
S'GCCAGCTGTACCGAGCTG'
p3449
tp3450
a(S'GTCAATCATAATGTCAAT'
p3451
S'GTCACTCATAATGTCAAT'
p3452
tp3453
a(S'AGCATATGTGGACGGGTT'
p3454
S'AGCATATGTGGACTGGTT'
p3455
tp3456
a(g2631
g2633
tp3457
a(S'TAGGTTTCGTGTGACGCT'
p3458
S'TAGGCTTCGTGTGACGCT'
p3459
tp3460
a(S'CAGGCGGCTATTCTGTCT'
p3461
S'CAGGAGGCTATTCTGTCT'
p3462
tp3463
a(S'TTGGTCGAGATTATTAAT'
p3464
S'TTGGACGAGATTATTAAT'
p3465
tp3466
a(g3464
S'TTGGCCGAGATTATTAAT'
p3467
tp3468
a(S'GACAATGAGGTAAAGTGC'
p3469
S'GACAATGAGGCAAAGTGC'
p3470
tp3471
a(S'CCCCAAGGACACACCAAA'
p3472
S'CCCCCAGGACACACCAAA'
p3473
tp3474
a(S'ACCTTAAGTAGGCAATAA'
p3475
S'ACCTTAAGTAGGCAATAG'
p3476
tp3477
a(S'GACATTGGACCATGTCGA'
p3478
S'TACATTGGACCATGTCGA'
p3479
tp3480
a(S'AAGCACGGAATGTACATT'
p3481
S'AAGCACGGAATGTACATA'
p3482
tp3483
a(g3481
g2225
tp3484
a(g3482
g2225
tp3485
a(g2225
S'AAGCAAGGAATGTACATG'
p3486
tp3487
a(g2225
S'AAGCCCGGAATGTACATG'
p3488
tp3489
a(S'ACATTTTCCAAACGTAAG'
p3490
S'ACATTTTCCAAACGTAAT'
p3491
tp3492
a(g2977
S'TAGGCAAAGTATCACAAT'
p3493
tp3494
a(S'TAGTCTCAGTGCAGTTTG'
p3495
S'CAGTCTCAGTGCAGTTTG'
p3496
tp3497
a(g3495
S'TAGTCTCAGTGCAGCTTG'
p3498
tp3499
a(g1951
g1953
tp3500
a(S'GATGCACGGTGTGGGGCA'
p3501
S'GATGCACGGTGTGGGGTA'
p3502
tp3503
a(S'GCTATTGGGCGCGTCCGT'
p3504
S'GCTATTGGGTGCGTCCGT'
p3505
tp3506
a(g1016
g1018
tp3507
a(S'TAACTCAGCCAGGCGCAA'
p3508
S'TGACTCAGCCAGGCGCAA'
p3509
tp3510
a(S'ACTTGCATATCATGTCAA'
p3511
S'ACTTGTATATCATGTCAA'
p3512
tp3513
a(S'CACCCCTCGACCACTGCA'
p3514
S'CACCCCTTGACCACTGCA'
p3515
tp3516
a(S'CGCTTTACGCCTACAGGC'
p3517
S'CGCTTTACGCCTACAGGT'
p3518
tp3519
a(S'AACGTTGATATAAAGTCG'
p3520
S'AACGATGATATAAAGTCG'
p3521
tp3522
a(S'TAGACCCCTACCCTAGTT'
p3523
S'CAGACCCCTACCCTAGTT'
p3524
tp3525
a(S'CGGGCAAGCTCTCAACGG'
p3526
S'CGGGTAAGCTCTCAACGG'
p3527
tp3528
a(S'AAGTACACAAGCTGGCGC'
p3529
S'AAGTACACAAGTTGGCGC'
p3530
tp3531
a(g345
S'AGGGTTTTTACCTCTTTG'
p3532
tp3533
a(S'GTTATGCTCGCTGGGTAA'
p3534
S'GCTATGCTCGCTGGGTAA'
p3535
tp3536
a(S'TGAGTACATGGCTGTCGG'
p3537
S'TGAGTACACGGCTGTCGG'
p3538
tp3539
a(g3537
S'TGAGCACATGGCTGTCGG'
p3540
tp3541
a(S'GGATGGGTAACTAGCCGC'
p3542
S'GGATGGGCAACTAGCCGC'
p3543
tp3544
a(S'GTCTTTACTGTCGAAGGG'
p3545
S'GTCTTTACTGTCGAAGGT'
p3546
tp3547
a(g748
g752
tp3548
a(S'CAATCTGGTTCTTTGACA'
p3549
S'CAATCTGGTTCTTTAACA'
p3550
tp3551
a(S'GTATCATGCGTTGCAATA'
p3552
S'GTATCATGTGTTGCAATA'
p3553
tp3554
a(S'TAAGACCGGCCGTAAGGG'
p3555
S'TAAGCCCGGCCGTAAGGG'
p3556
tp3557
a(g3555
S'TAAGGCCGGCCGTAAGGG'
p3558
tp3559
a(S'CTGGGCGATCTGTTTGGG'
p3560
S'CTGGGTGATCTGTTTGGG'
p3561
tp3562
a(S'AATCGGTTTGGGGGCCAG'
p3563
g3021
tp3564
a(g1679
g1681
tp3565
a(g569
g571
tp3566
a(S'TATTTGGGCGTGGAGCCA'
p3567
S'TATTTGGGTGTGGAGCCA'
p3568
tp3569
a(S'TAAAGATGTCGATAGGAC'
p3570
S'TAAAGATGCCGATAGGAC'
p3571
tp3572
a(S'AGGGGCGCTAAGTGTGGA'
p3573
S'AGGGGTGCTAAGTGTGGA'
p3574
tp3575
a(S'CCGTATCAGCCCCTGCCG'
p3576
S'CCGTATCAGCTCCTGCCG'
p3577
tp3578
a(S'GACTTAATTTTTACAGTG'
p3579
S'GACTTACTTTTTACAGTG'
p3580
tp3581
a(S'CTGCAGTTGACACAGACC'
p3582
S'CTGCAGTCGACACAGACC'
p3583
tp3584
a(S'GTTTAGTGCGTTATGCTT'
p3585
S'GTTCAGTGCGTTATGCTT'
p3586
tp3587
a(S'AGGTCTCGTCCTCCCTCA'
p3588
S'AGGTCTTGTCCTCCCTCA'
p3589
tp3590
a(g1612
S'GGCGCATTATAGCCTTCC'
p3591
tp3592
a(g2234
g2236
tp3593
a(g1126
g2772
tp3594
a(g1388
S'AAGGTGGGTGTATGATTC'
p3595
tp3596
a(g1388
S'ACGGGGGGTGTATGATTC'
p3597
tp3598
a(S'GATGCATATAGTAAGACA'
p3599
S'GATGTATATAGTAAGACA'
p3600
tp3601
a(S'TGCACTAACTTTAGTACA'
p3602
S'TGCACTAACTTTAGCACA'
p3603
tp3604
a(S'GTATTTAACAGTCGACCT'
p3605
S'GCATTTAACAGTCGACCT'
p3606
tp3607
a(S'AGCACGTAGGCAGACGGG'
p3608
S'AGCACGTAGGCAGAAGGG'
p3609
tp3610
a(S'TCTAAGATACTTTTGGTT'
p3611
S'TATAAGATACTTTTGGTT'
p3612
tp3613
a(S'AAGGCACTTTCTTCTACG'
p3614
S'AAGGAACTTTCTTCTACG'
p3615
tp3616
a(g3614
S'AAGGTACTTTCTTCTACG'
p3617
tp3618
a(S'AGTAGAGGCGGTGCTAAG'
p3619
S'AGTAGAGGTGGTGCTAAG'
p3620
tp3621
a(S'GGTTGCAAAATGACATGA'
p3622
S'GGCTGCAAAATGACATGA'
p3623
tp3624
a(S'TACCAACGGCGGGTCCCG'
p3625
S'TACCAACGGCGGGGCCCG'
p3626
tp3627
a(g3625
S'TACCAACGGCGGGTCCCC'
p3628
tp3629
a(S'TTAACTTAGTATCTGTGG'
p3630
S'TTAACTTAGTATCTGGGG'
p3631
tp3632
a(S'TGGCTCTCTGAGGTGTAC'
p3633
S'TGGCTCTCTGAGGCGTAC'
p3634
tp3635
a(g2081
g2083
tp3636
a(S'GGGGAGGGGCGTGGGGGG'
p3637
S'GGGGCGGGGCGTGGGGGG'
p3638
tp3639
a(S'TGGGGGTGGGGTGGCATG'
p3640
S'TGGGGGCGGGGTGGCATG'
p3641
tp3642
a(S'GGCGCCAGTCCAAGATGG'
p3643
S'GGCGCCAGTCCAAGAGGG'
p3644
tp3645
a(g1059
g1061
tp3646
a(S'GGCCGGGGGAGGGGTAAC'
p3647
S'GGCCGGTGGAGGGGTAAC'
p3648
tp3649
a(S'GCAGTTTTCGGTGCACGA'
p3650
S'GCAGCTTTCGGTGCACGA'
p3651
tp3652
a(S'TTCGTCGCCAGACGGACG'
p3653
S'TTCGTCGCCAGACGGATG'
p3654
tp3655
a(g2501
S'CGTGTGTAGCCTCATTAT'
p3656
tp3657
a(g3016
g3018
tp3658
a(S'TCACCACAAATGGCTCTA'
p3659
S'TCACCACAAATGGCCCTA'
p3660
tp3661
a(S'ACCCGTACGGCATTAGTG'
p3662
g1710
tp3663
a(S'CCCTCTCGACGCAGCGAT'
p3664
S'CCCTCTCGACGCAGCGAG'
p3665
tp3666
a(S'AAGACACGGGACGACGGC'
p3667
S'AAGACGCGGGACGACGGC'
p3668
tp3669
a(S'TCCGTGGTGTAATAAAAC'
p3670
S'TCCGTGGCGTAATAAAAC'
p3671
tp3672
a(S'AAAGCATTTTAGCTGAGT'
p3673
S'AAAGAATTTTAGCTGAGT'
p3674
tp3675
a(g826
S'TGTACGGTGGTGTGGGAG'
p3676
tp3677
a(g826
g828
tp3678
a(S'GGTTCGCTCAATTACGTG'
p3679
g895
tp3680
a(S'AGATCTTTTAAATACACT'
p3681
S'AGATATTTTAAATACACT'
p3682
tp3683
a(S'TTTGCCTAGAACCTGCCG'
p3684
g635
tp3685
a(S'ACACCTACGACATTAAGC'
p3686
S'ACACCTACGACATTAAGT'
p3687
tp3688
a(S'TCGTATCATTCGGAAAAA'
p3689
S'TCGCATCATTCGGAAAAA'
p3690
tp3691
a(S'GGAGTGTCAGGAGTGTTC'
p3692
S'GGTGTGTCAGGAGTGTTC'
p3693
tp3694
a(g2278
g2280
tp3695
a(S'ACTAGCACGTATATGGTC'
p3696
S'ACTAGAACGTATATGGTC'
p3697
tp3698
a(S'TGAGGGTGTCGGCTGATA'
p3699
S'TGAGGGCGTCGGCTGATA'
p3700
tp3701
a(g3699
S'TGAGTGTGTCGGCTGATA'
p3702
tp3703
a(S'TGCAACGACGGGTGACCT'
p3704
S'TGCAACGACGGGCGACCT'
p3705
tp3706
a(S'ACAGAACAACACAACGCG'
p3707
S'ACAGAACAACACAACGAG'
p3708
tp3709
a(S'ACTACGCCCTGTCTCCGT'
p3710
S'ACTAGGCCCTGTCTCCGT'
p3711
tp3712
a(S'CCCTTGATTTTGGTATAA'
p3713
S'CCCTTGATTTTGGTATCA'
p3714
tp3715
a(S'ACGGCACTTGGGCGCCTA'
p3716
S'ACGGCACTTGGGTGCCTA'
p3717
tp3718
a(S'TATGCCCACTTAGCCGGA'
p3719
S'TATGACCACTTAGCCGGA'
p3720
tp3721
a(g1719
g1721
tp3722
a(S'CTGTCCGACGCCCCGACT'
p3723
S'CTGTCCGACGCCCCGCCT'
p3724
tp3725
a(S'CATCATTGGTTTACGTCG'
p3726
S'CATCCTTGGTTTACGTCG'
p3727
tp3728
a(S'TGGGAGACTATATTCTGT'
p3729
S'TGGGCGACTATATTCTGT'
p3730
tp3731
a(S'CCAAGCGCCTCCTGTCAA'
p3732
S'CCAAGCGCCTCCTGTCGA'
p3733
tp3734
a(S'GATCCATATATGGTTCAA'
p3735
S'GATCAATATATGGTTCAA'
p3736
tp3737
a(S'ACCTACAGTACTCATATC'
p3738
S'ACCTACCGTACTCATATC'
p3739
tp3740
a(g3738
S'ACCCACAGTACTCATATC'
p3741
tp3742
a(S'TTACGATTACAGGAGGTG'
p3743
S'TTAAGATTACAGGAGGTG'
p3744
tp3745
a(g3615
g3617
tp3746
a(S'CGGCGCAGGTCATACCTG'
p3747
S'CGGTGCAGGTCATACCTG'
p3748
tp3749
a(S'CCGGCGGGCGTGCGGATG'
p3750
S'CCGGTGGGCGTGCGGATG'
p3751
tp3752
a(S'TCGTCCAAGGCGCCCCAC'
p3753
S'TCGCCCAAGGCGCCCCAC'
p3754
tp3755
a(S'GCGGTACAATAATAGCGT'
p3756
S'GCGGCACAATAATAGCGT'
p3757
tp3758
a(S'ACGTGTGGGACCCAGAAG'
p3759
S'ACGTGCGGGACCCAGAAG'
p3760
tp3761
a(S'CGAGCCCTGTTGATGAAT'
p3762
S'CGAGTCCTGTTGATGAAT'
p3763
tp3764
a(S'TTCACCCCTTTGGGCGCC'
p3765
S'TTCACCCCTTTGGGTGCC'
p3766
tp3767
a(S'GTTGGCCTCGGTCGCGCA'
p3768
S'GTGGGCCTCGGTCGCGCA'
p3769
tp3770
a(S'AAGGCCTTTAAGTTGTTG'
p3771
S'AAGGACTTTAAGTTGTTG'
p3772
tp3773
a(S'ACCTTTTCAACATCGAAT'
p3774
S'ACCTTTTCAACATCGAAG'
p3775
tp3776
a(S'CATTCCGTCTAGTCTTAT'
p3777
S'CATTCCGTCTAGCCTTAT'
p3778
tp3779
a(S'GTACTCGCTTTAGCTGAC'
p3780
S'GTACCCGCTTTAGCTGAC'
p3781
tp3782
a(S'AACAATAATCGGCAACCG'
p3783
S'AACAATAATCGGCAATCG'
p3784
tp3785
a(S'CGTCGCCCAGCAAATGCT'
p3786
S'CGTCCCCCAGCAAATGCT'
p3787
tp3788
a(S'CGGTCCAAGGAGGGACCA'
p3789
S'CGGTCCAAGGTGGGACCA'
p3790
tp3791
a(S'CGGCGTCGTAAAGACTCG'
p3792
S'CGGTGTCGTAAAGACTCG'
p3793
tp3794
a(S'TGATAAGAATGTCGAGGT'
p3795
S'TGATAAGAATGTCGAGGC'
p3796
tp3797
a(g2164
g2166
tp3798
a(S'TATAGGCGTTTTTTCGCA'
p3799
S'TATAGGTGTTTTTTCGCA'
p3800
tp3801
a(S'GGAGTATAGGCGGCCTGT'
p3802
S'GGAGCATAGGCGGCCTGT'
p3803
tp3804
a(g2953
g2955
tp3805
a(S'CAAGATCGTGCGGACGTG'
p3806
S'CAAGATCGTGTGGACGTG'
p3807
tp3808
a(S'GGTAGACCTCGTTAGTTC'
p3809
S'GGCAGACCTCGTTAGTTC'
p3810
tp3811
a(S'TTGCAGAAGGGGCACGTA'
p3812
S'TTGCAGAGGGGGCACGTA'
p3813
tp3814
a(S'TAATTGGAGGACCTTTGA'
p3815
S'TAATCGGAGGACCTTTGA'
p3816
tp3817
a(S'CACGCATTGCCGATAGGA'
p3818
S'CACGCATGGCCGATAGGA'
p3819
tp3820
a(S'TAAGATTCGTGCTAAAAC'
p3821
S'TAAGATTCGCGCTAAAAC'
p3822
tp3823
a(S'ATAGTGGTGGCCGTCGAC'
p3824
S'ATAGCGGTGGCCGTCGAC'
p3825
tp3826
a(S'CGGTGGTGTCATGGGTCA'
p3827
S'CGGTGGCGTCATGGGTCA'
p3828
tp3829
a(S'GTCTCGACTCCGGGGCCG'
p3830
S'GTCTCGACTCCGGGGTCG'
p3831
tp3832
a(S'GTCTTTGGTGCAAACCAT'
p3833
S'GTCTTTGGCGCAAACCAT'
p3834
tp3835
a(S'CCTAGCTTGGTTGGCCAA'
p3836
S'CCTAGATTGGTTGGCCAA'
p3837
tp3838
a(S'CGGGATATCATACGGCAC'
p3839
S'CGGGCTATCATACGGCAC'
p3840
tp3841
a(S'ACCTCAGAGCACCTTACC'
p3842
S'ACCTCAGAGCCCCTTACC'
p3843
tp3844
a(S'GGCCCCACATGGTGGGGC'
p3845
S'GGCTCCACATGGTGGGGC'
p3846
tp3847
a(S'AGAGGTGAGTATAATACG'
p3848
S'AGCGGTGAGTATAATACG'
p3849
tp3850
a(g3848
S'AGAGGCGAGTATAATACG'
p3851
tp3852
a(S'GGGGTGAAAACTGGACCG'
p3853
S'GGGGCGAAAACTGGACCG'
p3854
tp3855
a(S'CGGGATACATCATCGTAC'
p3856
S'CGGGTTACATCATCGTAC'
p3857
tp3858
a(g678
g680
tp3859
a(S'TACATGCTACTCAAAATC'
p3860
S'TACATGCTCCTCAAAATC'
p3861
tp3862
a(S'TCGGTTAAGTGCGAGGGG'
p3863
S'TCGGATAAGTGCGAGGGG'
p3864
tp3865
a(S'CGGGCGAAGGAGCGAGTA'
p3866
S'CGGGAGAAGGAGCGAGTA'
p3867
tp3868
a(S'CACTAAAAGCTAGCGAGG'
p3869
S'CACTAAAAGCTAGCGTGG'
p3870
tp3871
a(S'AATGGGTGATAACGACTC'
p3872
S'AATGGGTGAGAACGACTC'
p3873
tp3874
a(S'GAGATGTACATGTCGGTG'
p3875
S'GAGATGTCCATGTCGGTG'
p3876
tp3877
a(S'CCGTTGGTATTGGATCAA'
p3878
g1967
tp3879
a(S'GAAGTAGTGTGGCCGCTG'
p3880
S'GACGTAGTGTGGCCGCTG'
p3881
tp3882
a(S'CCGGCGCCCGCCCTCCGG'
p3883
S'CCGGTGCCCGCCCTCCGG'
p3884
tp3885
a(S'GGGCTATAATACTGTCGG'
p3886
S'GGGTTATAATACTGTCGG'
p3887
tp3888
a(S'ACTAGAACGCATATGGTC'
p3889
g3697
tp3890
a(S'TGCTCGACAATGGAAACG'
p3891
S'TGCTCGACAATGGCAACG'
p3892
tp3893
a(g3891
S'TGCTAGACAATGGAAACG'
p3894
tp3895
a(S'TGGGCTTTTAAAATCAGC'
p3896
S'TGGGATTTTAAAATCAGC'
p3897
tp3898
a(S'GCGGATGCGGGGAAATAC'
p3899
S'GTGGATGCGGGGAAATAC'
p3900
tp3901
a(S'AGAGCGATTCTATTCAAA'
p3902
S'AGAGTGATTCTATTCAAA'
p3903
tp3904
a(S'GGCGTGAATATATTCTAG'
p3905
S'GGTGTGAATATATTCTAG'
p3906
tp3907
a(S'CTCGTGTTAAACCTATAT'
p3908
S'CTCGCGTTAAACCTATAT'
p3909
tp3910
a(S'CTCGCGGTTCAGAAGCAC'
p3911
S'CTCGTGGTTCAGAAGCAC'
p3912
tp3913
a(S'AAATGATGTTGGAGTACG'
p3914
S'AAATGAGGTTGGAGTACG'
p3915
tp3916
a(g996
g998
tp3917
a(S'GGTGACAAGTCTGCTACG'
p3918
S'GGCGACAAGTCTGCTACG'
p3919
tp3920
a(S'TGACCTCGAACAGTACAA'
p3921
S'TGACCTCTAACAGTACAA'
p3922
tp3923
a(S'GTTCAGACTGTGGAAACA'
p3924
S'GTTCAGACTGTGGAAACT'
p3925
tp3926
a(S'CACGAGCGCAGCATGTCC'
p3927
S'AACGAGCGCAGCATGTCC'
p3928
tp3929
a(S'CTCCAGGCGCGGTAGGGG'
p3930
S'CTCCAGGTGCGGTAGGGG'
p3931
tp3932
a(S'AAGGCGTCATTAGGAGGG'
p3933
S'AAGGAGTCATTAGGAGGG'
p3934
tp3935
a(S'AGAGAGACAGCGAGAAGG'
p3936
S'AGAGTGACAGCGAGAAGG'
p3937
tp3938
a(S'TGCAAAGCATAAGCAACA'
p3939
g17
tp3940
a(S'GCGGCGTGGCGCGCGAGC'
p3941
S'GCGGTGTGGCGCGCGAGC'
p3942
tp3943
a(S'TCATGTAAAGTGGCGGCG'
p3944
S'TCATGTAAAGTGGCGGGG'
p3945
tp3946
a(S'TTTCCCGCTTGGGTACGG'
p3947
S'TTTCCCGCTTGGGCACGG'
p3948
tp3949
a(S'GGTGGCCCATATACCGAC'
p3950
g1956
tp3951
a(S'GCATTGGTGATCCAATTA'
p3952
S'GCATTGGCGATCCAATTA'
p3953
tp3954
a(S'GCGTACCACAATGAATTA'
p3955
S'GCGTCCCACAATGAATTA'
p3956
tp3957
a(S'GCTACGCGCGACCTTAGA'
p3958
S'GCTACGTGCGACCTTAGA'
p3959
tp3960
a(S'TTATGCGTAGCTATAGGC'
p3961
S'TTATGCGTAGCTATAGGT'
p3962
tp3963
a(S'TCCACTTGCGAGACCCCG'
p3964
S'TCCACTTGCGAGACCCCT'
p3965
tp3966
a(S'CTCGACGAGATGAATCCC'
p3967
S'ATCGACGAGATGAATCCC'
p3968
tp3969
a(S'GTACGTGCACATAAAAAC'
p3970
S'GCACGTGCACATAAAAAC'
p3971
tp3972
a(g3970
S'GTACGCGCACATAAAAAC'
p3973
tp3974
a(S'CGCGGGCGGCCGCCTCGA'
p3975
S'CGCGGGTGGCCGCCTCGA'
p3976
tp3977
a(S'AACGTGCTTTGGGTACAG'
p3978
S'AACGCGCTTTGGGTACAG'
p3979
tp3980
a(S'CGTACGCTCGTATTCAAG'
p3981
S'CGCACGCTCGTATTCAAG'
p3982
tp3983
a(S'AGTAGCATATGGGTAGGG'
p3984
S'AGTAGCATATGGGCAGGG'
p3985
tp3986
a(S'GCGACTCCGCAGCTATAT'
p3987
S'GTGACTCCGCAGCTATAT'
p3988
tp3989
a(S'GAGGGTGACCGTCACCAT'
p3990
S'GAGGGCGACCGTCACCAT'
p3991
tp3992
a(S'CGGGGTTGACTCTTCGGG'
p3993
S'CGGGGTTTACTCTTCGGG'
p3994
tp3995
a(S'CACTTGGGGCCGCACCCA'
p3996
S'CACTTGGGGCCGCACCTA'
p3997
tp3998
a(S'TTCGTTTTATGCTGTAGC'
p3999
S'TTCGCTTTATGCTGTAGC'
p4000
tp4001
a(S'GTATCTGTCGCACAGAGC'
p4002
S'GCATCTGTCGCACAGAGC'
p4003
tp4004
a(S'GGTAGTGGGCTTTGGCAG'
p4005
S'GGCAGTGGGCTTTGGCAG'
p4006
tp4007
a(S'GCTGTTTACATGGGAGCG'
p4008
S'GTTGTTTACATGGGAGCG'
p4009
tp4010
a(S'GGCGCTCCGCCAGGTAGT'
p4011
S'GGCGCTCCGCCAGGCAGT'
p4012
tp4013
a(S'CCATTACATAATAAACGT'
p4014
S'CCATTACATAATAACCGT'
p4015
tp4016
a(g2525
S'GTACCGGCGGGGGTGGGC'
p4017
tp4018
a(S'CGTTAAGGTATTAGTCCA'
p4019
S'CGTTAAGGCATTAGTCCA'
p4020
tp4021
a(S'GGGTACGCCAGCGATTGC'
p4022
S'GGGCACGCCAGCGATTGC'
p4023
tp4024
a(S'AAGGCAGCTTAAGTGGCC'
p4025
S'AAGGCAGCTTAAGCGGCC'
p4026
tp4027
a(S'AAGGTAGTATTGAGTTTT'
p4028
S'AAGGCAGTATTGAGTTTT'
p4029
tp4030
a(S'TTAATACTGTTTAAAGCT'
p4031
S'TAAATACTGTTTAAAGCT'
p4032
tp4033
a(S'AGTGTCACTGGGTGGTTG'
p4034
S'AGTGTCACTGGGGGGTTG'
p4035
tp4036
a(S'GTGGGTTAGTGGCGGTTT'
p4037
S'GTGGGTTAGTGGCGGTTC'
p4038
tp4039
a(S'TCTTGAGACCGGATGGGA'
p4040
S'TCTTGAGACCGGAGGGGA'
p4041
tp4042
a(g3208
S'AGCGGAGGTGACATTGCC'
p4043
tp4044
a(g3208
g3210
tp4045
a(S'TTAGCGGCATAAGAGGAC'
p4046
S'TTAGTGGCATAAGAGGAC'
p4047
tp4048
a(g3165
S'GGCGGTAGTCGTTTGTTA'
p4049
tp4050
a(S'CTGCAACTAAAAGGCAAA'
p4051
S'CTGCAACTAAAAGGTAAA'
p4052
tp4053
a(S'ACCGCGTTATTTTTGTTC'
p4054
S'ACCGAGTTATTTTTGTTC'
p4055
tp4056
a(S'AAGCGGCTATACGTTCGC'
p4057
S'AAGAGGCTATACGTTCGC'
p4058
tp4059
a(S'GCCATTCTCTACCCTAAG'
p4060
S'GCTATTCTCTACCCTAAG'
p4061
tp4062
a(S'ATGGCGGGGTGTCCCGAC'
p4063
S'ATGGCGGGTTGTCCCGAC'
p4064
tp4065
a(g1426
g1428
tp4066
a(S'TAAACAAGTTGGCGCGAG'
p4067
S'TAAACACGTTGGCGCGAG'
p4068
tp4069
a(S'CCAAGGTAGGTTAACATG'
p4070
S'CCAAGGCAGGTTAACATG'
p4071
tp4072
a(S'TCAGTGGATCGAGCCGGA'
p4073
S'TCAGAGGATCGAGCCGGA'
p4074
tp4075
a(g4073
S'TCAGCGGATCGAGCCGGA'
p4076
tp4077
a(S'CGAAGGGCATATAAGGGA'
p4078
S'CGAAGGGTATATAAGGGA'
p4079
tp4080
a(g4078
S'CGAAGGGAATATAAGGGA'
p4081
tp4082
a(g1681
S'CGGGTAGCGGGGGATTCC'
p4083
tp4084
a(S'GTTCTAGGTAGCAACTCT'
p4085
S'GTTCTAGGCAGCAACTCT'
p4086
tp4087
a(S'CCATTTGGCAGGGTACCG'
p4088
S'CCATTTGGCAGGGAACCG'
p4089
tp4090
a(S'GTGCGCGGAGGCGAATTA'
p4091
S'GTGCGCGGAGGTGAATTA'
p4092
tp4093
a(g646
S'GGTGCTTCAGGCGGGAAG'
p4094
tp4095
a(S'AAGGCAGAGTGTCAGTTG'
p4096
S'AAGGTAGAGTGTCAGTTG'
p4097
tp4098
a(S'GTCTACTTTAATCAGGCT'
p4099
S'GTCTACTTTAATCAGGCC'
p4100
tp4101
a(S'TTGGCATGCGCGTATTCG'
p4102
S'TTGGAATGCGCGTATTCG'
p4103
tp4104
a(S'CACACATGAACTACGTAG'
p4105
S'CACACATGAACTACGTAT'
p4106
tp4107
a(S'GCGGCTCTGAGCAAACTT'
p4108
S'GCGGTTCTGAGCAAACTT'
p4109
tp4110
a(S'AGGTGCTGTGATTATTAG'
p4111
S'AGGCGCTGTGATTATTAG'
p4112
tp4113
a(S'GCCGAGGCTTTTGGTGCT'
p4114
S'GCCGAGGTTTTTGGTGCT'
p4115
tp4116
a(S'TGTAGTCATGGGTCCTAG'
p4117
S'TGTAGTCATTGGTCCTAG'
p4118
tp4119
a(S'TCAAGCAATATCCTCTGA'
p4120
S'TCAAGTAATATCCTCTGA'
p4121
tp4122
a(g689
S'TCGAGCAAGGGTAGGACA'
p4123
tp4124
a(S'TAATTTGAAGAAAAATCG'
p4125
S'TAATTTGAAGAAAAATCT'
p4126
tp4127
a(S'TACCCCCCTCGGCGGCTC'
p4128
S'TACCCCCCTCGGTGGCTC'
p4129
tp4130
a(S'GAACAGGAAGACTGTACT'
p4131
S'AAACAGGAAGACTGTACT'
p4132
tp4133
a(S'GAGTCCGGGCGAAGTGGC'
p4134
S'GCGTCCGGGCGAAGTGGC'
p4135
tp4136
a(S'GAGCGCACCGAATATACC'
p4137
S'GAGCGCACCTAATATACC'
p4138
tp4139
a(S'CTGTGTTCACCCCCATGG'
p4140
S'ATGTGTTCACCCCCATGG'
p4141
tp4142
a(S'ATAGGCCGCGCCCGCAAG'
p4143
S'ATAGGCCGTGCCCGCAAG'
p4144
tp4145
a(g3906
S'GGTGCGAATATATTCTAG'
p4146
tp4147
a(S'GGGTTGAGCGCGAATTTT'
p4148
S'GGGTTGAGTGCGAATTTT'
p4149
tp4150
a(g4079
g4081
tp4151
a(S'TGCGGACGCGGTGTTGAA'
p4152
S'TGCGGACGTGGTGTTGAA'
p4153
tp4154
a(S'TGCGTATAGTCCAATACC'
p4155
S'TGCGCATAGTCCAATACC'
p4156
tp4157
a(S'AAGTGTTTGCAATAAATG'
p4158
S'AAGCGTTTGCAATAAATG'
p4159
tp4160
a(S'GGCGAGTTCGAGCGGCGA'
p4161
S'GGCGAGTTCGAGCGGTGA'
p4162
tp4163
a(S'TACGAGGGTGAATGTAGT'
p4164
S'TACGAGGGCGAATGTAGT'
p4165
tp4166
a(S'GTATGGGCTCAGGCGGAA'
p4167
S'GTATGGGCTCAGGTGGAA'
p4168
tp4169
a(S'GGGAGGGGCGGGGGGGCG'
p4170
S'GGGAGGGGCGGGGAGGCG'
p4171
tp4172
a(g4170
S'GGGAGGGGCGGGGCGGCG'
p4173
tp4174
a(S'TCTGATTGGATGGGGTGT'
p4175
S'TCTGATTGGATGGGGAGT'
p4176
tp4177
a(S'TTTTAGTAATACTGTTTG'
p4178
S'TTTTAGAAATACTGTTTG'
p4179
tp4180
a(S'ACGGGCGATCCAGCAGGG'
p4181
S'ACGGGTGATCCAGCAGGG'
p4182
tp4183
a(S'CTTCCCCGCAAGATCCAC'
p4184
S'CTTCACCGCAAGATCCAC'
p4185
tp4186
a(S'AGCAGTGGCGGTTTGCGC'
p4187
S'AGCAGTGGCGGTTGGCGC'
p4188
tp4189
a(S'CCCCGTATGTGGCGGGGA'
p4190
S'CCCCGTATGTGGCGGGTA'
p4191
tp4192
a(S'TATGAGACCCCGATTAAT'
p4193
S'TATGCGACCCCGATTAAT'
p4194
tp4195
a(S'TACGAATCAGTGGGGTAG'
p4196
S'TACGAATCAGTGGGGCAG'
p4197
tp4198
a(S'GAAGAGATTGAAGCCCAT'
p4199
S'GAAGCGATTGAAGCCCAT'
p4200
tp4201
a(S'TTGCCGTTCTGTCTCATG'
p4202
S'TTGCAGTTCTGTCTCATG'
p4203
tp4204
a(S'GGCGCACCCAGTACCAAG'
p4205
S'GGTGCACCCAGTACCAAG'
p4206
tp4207
a(S'GGGCGTTCCGATAGGCAA'
p4208
S'GGGTGTTCCGATAGGCAA'
p4209
tp4210
a(S'TTGCGGCTTAAAGCGATC'
p4211
S'TTGTGGCTTAAAGCGATC'
p4212
tp4213
a(S'CTTTGCTCGATCCGGACG'
p4214
S'CTTTGCTCGATTCGGACG'
p4215
tp4216
a(S'CGAGGTGGATACCACATT'
p4217
g1417
tp4218
a(g1804
g1808
tp4219
a(g3249
g3251
tp4220
a(g3249
S'GCAAGCAGGTCTAGTTCT'
p4221
tp4222
a(S'GCGTCAGAGCTCTGCGGA'
p4223
S'GCGTGAGAGCTCTGCGGA'
p4224
tp4225
a(S'ACAGCCCACCCGCCTTGT'
p4226
S'AAAGCCCACCCGCCTTGT'
p4227
tp4228
a(S'CTAGGTATCCGCAAGTGG'
p4229
S'CTAGGCATCCGCAAGTGG'
p4230
tp4231
a(g3232
g3234
tp4232
a(S'AAGCAAAAGAGCTCCAAA'
p4233
S'AAGCCAAAGAGCTCCAAA'
p4234
tp4235
a(g1027
g1029
tp4236
a(S'GGGGCCATTAATAAGGGG'
p4237
S'GGGGACATTAATAAGGGG'
p4238
tp4239
a(S'CTTGGAGTGCGGGTGTTG'
p4240
S'CTTGGAGTGCGGGCGTTG'
p4241
tp4242
a(S'AGGGATCACAAAGTGTTA'
p4243
S'AGGGATCACAAAGCGTTA'
p4244
tp4245
a(g577
S'AATTAGATCGGGGCGACC'
p4246
tp4247
a(S'CTAAAGTTTAGATAAGAT'
p4248
S'CTACAGTTTAGATAAGAT'
p4249
tp4250
a(S'AAGAACTGTTACTCTATG'
p4251
S'AAGCACTGTTACTCTATG'
p4252
tp4253
a(S'AGACCAGCTACACCGTCC'
p4254
S'AGACAAGCTACACCGTCC'
p4255
tp4256
a(S'GGTTGGGTGTGCGTACGT'
p4257
S'GGTTGGGCGTGCGTACGT'
p4258
tp4259
a(g3556
g3558
tp4260
a(S'GCGAGAGTAGCCCCGACC'
p4261
S'GTGAGAGTAGCCCCGACC'
p4262
tp4263
a(S'TGTTCTTAGTGTCAATGT'
p4264
S'TGTTATTAGTGTCAATGT'
p4265
tp4266
a(S'CCGGAAGCAGATACAAAA'
p4267
S'CCGGCAGCAGATACAAAA'
p4268
tp4269
a(S'ATGGCGGGTTGTCCCCAC'
p4270
g4064
tp4271
a(S'GTGGCATAATAATTATTT'
p4272
S'GTGGAATAATAATTATTT'
p4273
tp4274
a(S'GATTGAATATCCACGCGG'
p4275
S'GATTGAATATCCACGTGG'
p4276
tp4277
a(g4188
S'AGCAGTGGCGGTTGGGGC'
p4278
tp4279
a(S'GTCAGGCTTAAAAAGAGC'
p4280
S'GTCAGGTTTAAAAAGAGC'
p4281
tp4282
a(g2735
g2737
tp4283
a(S'AGTAACAAGGGAAGCGTA'
p4284
S'AGTAACAAGGGTAGCGTA'
p4285
tp4286
a(S'GTTCTCTCGGCGGGCTGC'
p4287
S'GTTCTCTCGGTGGGCTGC'
p4288
tp4289
a(S'CGGGGAACGGATTTGGGA'
p4290
S'CGGGGTACGGATTTGGGA'
p4291
tp4292
a(S'AGGGCAGCGCCACGCGTC'
p4293
S'AGGGTAGCGCCACGCGTC'
p4294
tp4295
a(S'CCAGGAGGTACTTGAAAA'
p4296
S'CCAGGAGGCACTTGAAAA'
p4297
tp4298
a(S'ACGCGCCTGGGGGCGGAT'
p4299
S'ATGCGCCTGGGGGCGGAT'
p4300
tp4301
a(g3465
g3467
tp4302
a(S'AGAAATGGCGCGGAATCA'
p4303
S'AGAACTGGCGCGGAATCA'
p4304
tp4305
a(S'ACACGCCGCGCGACGCCC'
p4306
S'ACACGCCCCGCGACGCCC'
p4307
tp4308
a(S'ATTTGGGCTTTTGGAGAT'
p4309
S'ATTTGGGTTTTTGGAGAT'
p4310
tp4311
a(S'AACGGGCGGGCGTTTAAA'
p4312
S'AACGGGCGGGTGTTTAAA'
p4313
tp4314
a(g4312
S'AACGGGCGGGAGTTTAAA'
p4315
tp4316
a(S'CTAGACAACGGGGGCGCG'
p4317
S'CTAGACAACGGGGGTGCG'
p4318
tp4319
a(S'ATGATCGGCGCGGGGTAG'
p4320
S'ATTATCGGCGCGGGGTAG'
p4321
tp4322
a(S'AGAGGGGGAGATTACGCG'
p4323
S'AGAGGGGGCGATTACGCG'
p4324
tp4325
a(g4323
S'AGAGGGGGTGATTACGCG'
p4326
tp4327
a(S'GAATTTACGTCGGGGTAA'
p4328
S'GAATTTACGTCGGGGCAA'
p4329
tp4330
a(S'CGACATAGTGGGCAGGGT'
p4331
S'CGACATAGTGGGCAGGGC'
p4332
tp4333
a(S'GGGCGCTAATCTCTGCTC'
p4334
S'GGGTGCTAATCTCTGCTC'
p4335
tp4336
a(S'AGATGGGTTTCTGTGTGC'
p4337
S'AGATGGGCTTCTGTGTGC'
p4338
tp4339
a(S'CCTAAAAGGGCGCTAATT'
p4340
S'CCTAAAAGGGTGCTAATT'
p4341
tp4342
a(S'AATGCGCGTGCGAGTTTC'
p4343
S'AATGTGCGTGCGAGTTTC'
p4344
tp4345
a(S'TCGCCTACAAATTCAATA'
p4346
S'TCGCCGACAAATTCAATA'
p4347
tp4348
a(S'GTTTCCCACGCAAGAATC'
p4349
S'GTTTCTCACGCAAGAATC'
p4350
tp4351
a(S'CTTCATCTGAGCATGCTG'
p4352
S'CTTCATCTGAGCATGCTT'
p4353
tp4354
a(S'CGTAGGTAGTGTCAAATT'
p4355
S'CGTAGGCAGTGTCAAATT'
p4356
tp4357
a(S'ACGGCAGGTGGCGCATTG'
p4358
S'ACGGCAGGTGGCGTATTG'
p4359
tp4360
a(S'CCGTTGTAATATCTAAGA'
p4361
S'ACGTTGTAATATCTAAGA'
p4362
tp4363
a(S'CGGGCGCCTAATTAAAAC'
p4364
S'CGGGAGCCTAATTAAAAC'
p4365
tp4366
a(S'TAGCTTACCAGCCCCCAC'
p4367
S'TAGCTTACTAGCCCCCAC'
p4368
tp4369
a(g392
g394
tp4370
a(S'AGCGTGCCAGGAGGCTGC'
p4371
S'AGCGCGCCAGGAGGCTGC'
p4372
tp4373
a(S'CTCTACATAATTTTATGA'
p4374
S'CTCTACATACTTTTATGA'
p4375
tp4376
a(S'AGGCCCGGTCTAGGGAAA'
p4377
S'AGGCTCGGTCTAGGGAAA'
p4378
tp4379
a(S'TCCGACTTTAAGATAGGT'
p4380
S'TCCGACTTTAAGATAGGC'
p4381
tp4382
a(S'AGTCAACTAAAGCTGGCA'
p4383
S'AGTCAACTAAAGTTGGCA'
p4384
tp4385
a(S'ACTAGAGTTTGAGGGGGC'
p4386
S'ACTAGAGTTTGAGTGGGC'
p4387
tp4388
a(S'CGATGGCGGGCGGAGAGA'
p4389
S'CGATGGCGGGTGGAGAGA'
p4390
tp4391
a(S'TCGCGCAGGGTATACGGT'
p4392
S'TCGCGAAGGGTATACGGT'
p4393
tp4394
a(S'ATAGGGACTAGACATTAC'
p4395
S'AGAGGGACTAGACATTAC'
p4396
tp4397
a(S'ATCGCTTCCACATAGTAT'
p4398
S'ATCGCTGCCACATAGTAT'
p4399
tp4400
a(g2415
g2417
tp4401
a(S'GGAGTGGCAATGGGGGTC'
p4402
S'GGAGCGGCAATGGGGGTC'
p4403
tp4404
a(S'CGGGGTGTAGGATTGGTG'
p4405
S'CGGGGCGTAGGATTGGTG'
p4406
tp4407
a(S'ATGCGCGGCAGGGTATTG'
p4408
S'ATGCGCGGCAGGGCATTG'
p4409
tp4410
a(S'CGTTGGAGGGTGCGATTC'
p4411
S'CGTTGGAGGGAGCGATTC'
p4412
tp4413
a(g946
g948
tp4414
a(S'ACAAGGCTGGCCGCGTAT'
p4415
S'ACAAGGTTGGCCGCGTAT'
p4416
tp4417
a(g3693
S'GGTGCGTCAGGAGTGTTC'
p4418
tp4419
a(S'AGATCCCCGAGGTGGATA'
p4420
S'AGATCCCCGAGGCGGATA'
p4421
tp4422
a(S'TATTAAATTTCTAATGGT'
p4423
S'TATTCAATTTCTAATGGT'
p4424
tp4425
a(S'TTTCCGAGCGATTTGCAA'
p4426
S'TTTCCGAGTGATTTGCAA'
p4427
tp4428
a(S'GTACTGCCATGCCCTCTC'
p4429
S'GTACCGCCATGCCCTCTC'
p4430
tp4431
a(S'GGATGTCCGTGATGGCTC'
p4432
S'GGATGCCCGTGATGGCTC'
p4433
tp4434
a(S'TTAACCAGGGCTCCTACC'
p4435
S'TTAACCAGGGTTCCTACC'
p4436
tp4437
a(S'GGATCATGCACAGAACCT'
p4438
S'GGATCATGTACAGAACCT'
p4439
tp4440
a(S'ATACGCGTTGTCGGGAGG'
p4441
S'ATACGAGTTGTCGGGAGG'
p4442
tp4443
a(S'CGGTATGTCCACAGAACA'
p4444
S'CGGAATGTCCACAGAACA'
p4445
tp4446
a(S'CGGCGGGGACTTGCGCGG'
p4447
S'CGGCGGGTACTTGCGCGG'
p4448
tp4449
a(S'ATAACCGAGGTAAGGGGC'
p4450
S'ATAACCGAGGCAAGGGGC'
p4451
tp4452
a(S'AACTAGGTAGACAATGAA'
p4453
S'CACTAGGTAGACAATGAA'
p4454
tp4455
a(S'ACAAGGGTATTTTGCGGC'
p4456
S'ACAAGGGCATTTTGCGGC'
p4457
tp4458
a(S'CAGGATCACATTTCTAAA'
p4459
S'CAGGCTCACATTTCTAAA'
p4460
tp4461
a(S'GGGCAAATGAGCTCGTGA'
p4462
S'GGGCAAATGTGCTCGTGA'
p4463
tp4464
a(S'CTGGTCGAAGGGATTGGA'
p4465
S'CTGGCCGAAGGGATTGGA'
p4466
tp4467
a(S'CAGTAGATCGTGCCACGC'
p4468
S'CAGAAGATCGTGCCACGC'
p4469
tp4470
a(S'TGTTCGGTTGCGGTGGCC'
p4471
S'TGTTCGGCTGCGGTGGCC'
p4472
tp4473
a(g1777
S'GGGGCGGGGCGTGCAGGA'
p4474
tp4475
a(S'GGAAAACCCAATGTTTTG'
p4476
S'GGAACACCCAATGTTTTG'
p4477
tp4478
a(S'AGAATTCAGGTCCGCGAC'
p4479
S'AGAATTCAGGTCCGTGAC'
p4480
tp4481
a(S'GGGGCAGACCAGCCTTCC'
p4482
S'GGGGTAGACCAGCCTTCC'
p4483
tp4484
a(S'ATTTGGTGATTTTAGCGG'
p4485
S'ATTTGGTGATTTTAGTGG'
p4486
tp4487
a(S'GGTTGGCGGCGTGGCACT'
p4488
S'GGTGGGCGGCGTGGCACT'
p4489
tp4490
a(S'GCAATGCGACGGACAGTC'
p4491
S'GCAATGCGACGGACAGCC'
p4492
tp4493
a(S'TAGCGGCCCGAGCGTCCA'
p4494
S'TAGCGGCCCGAGTGTCCA'
p4495
tp4496
a(S'TTCGAGTCTGCAATTGGC'
p4497
S'TTCGAGTCGGCAATTGGC'
p4498
tp4499
a(S'CGGGCGTAAGGGGGTGTG'
p4500
S'CGGGTGTAAGGGGGTGTG'
p4501
tp4502
a(S'ATTTTCAAGGGTTTTACA'
p4503
S'ATTTTCAAGGGCTTTACA'
p4504
tp4505
a(S'GGTGATAGCCAGGTGCTG'
p4506
S'GGAGATAGCCAGGTGCTG'
p4507
tp4508
a(S'TTGGTACATTAGCAGTGC'
p4509
S'TTGGCACATTAGCAGTGC'
p4510
tp4511
a(g4509
S'TTGGAACATTAGCAGTGC'
p4512
tp4513
a(S'CGGGAGGTTGGCGTAAAG'
p4514
S'CGGGCGGTTGGCGTAAAG'
p4515
tp4516
a(S'TTGGAGCGAAGTCACCGG'
p4517
S'TTGGAGAGAAGTCACCGG'
p4518
tp4519
a(S'CTAAATACTCATCCCGGA'
p4520
S'CTAAACACTCATCCCGGA'
p4521
tp4522
a(S'CAGTTAAGGCACGGGCTG'
p4523
S'CAGTTAAGGTACGGGCTG'
p4524
tp4525
a(S'TCGGGTGGACATATTTTG'
p4526
S'TCGGGCGGACATATTTTG'
p4527
tp4528
a(g1043
S'AGAACTTTATCGTTAATG'
p4529
tp4530
a(g4436
S'TTAACCAGGGTTCCTACT'
p4531
tp4532
a(S'ATGCAGTGGTAGCTCTAA'
p4533
S'ATGCAGGGGTAGCTCTAA'
p4534
tp4535
a(S'CTGGGGTGTTTCTCTCGG'
p4536
S'CTTGGGTGTTTCTCTCGG'
p4537
tp4538
a(S'ACAGCGACGAGGGGGGGC'
p4539
S'ACAGCGACGAGGGGGGGT'
p4540
tp4541
a(S'GCGAAACACTAGTAGTAT'
p4542
g1727
tp4543
a(g2587
S'CCTTCAGACAGGACAACG'
p4544
tp4545
a(S'GGGCGCGCTTCTTGGTAA'
p4546
S'GGGTGCGCTTCTTGGTAA'
p4547
tp4548
a(S'GCAAGCTGTGGACAGATG'
p4549
S'GCAAGTTGTGGACAGATG'
p4550
tp4551
a(S'AGGCGAACGCCGAACTTG'
p4552
S'AGGTGAACGCCGAACTTG'
p4553
tp4554
a(g621
g623
tp4555
a(S'GAGCCTACCTGAACACAT'
p4556
S'GAGTCTACCTGAACACAT'
p4557
tp4558
a(S'CGGCGGGTGGGTCTGGGC'
p4559
S'CGGTGGGTGGGTCTGGGC'
p4560
tp4561
a(S'GCTCGGGAGAAGGCGGGG'
p4562
S'GCTCGGGAGAAGGTGGGG'
p4563
tp4564
a(S'CAAGTATGGCAAATAACA'
p4565
S'CAAGTATGGTAAATAACA'
p4566
tp4567
a(S'AATGTGAGTCCGGAAAGT'
p4568
S'AATGTGAGTCAGGAAAGT'
p4569
tp4570
a(S'CAAGCATGGTAAATAACA'
p4571
g4566
tp4572
a(S'CGTGAATACGACCGCATG'
p4573
S'CGTGCATACGACCGCATG'
p4574
tp4575
a(S'CGGTATCACGACTTGGAA'
p4576
S'CGGTATCACGACTTGGAG'
p4577
tp4578
a(g4577
S'CGGCATCACGACTTGGAG'
p4579
tp4580
a(g4171
g4173
tp4581
a(S'GTGCTGGGCGCACTAACT'
p4582
S'GTGCTGGGTGCACTAACT'
p4583
tp4584
a(S'GGCTTTGGAGGAAGGCCG'
p4585
S'GGTTTTGGAGGAAGGCCG'
p4586
tp4587
a(S'GCTTAACGACTATAATTA'
p4588
S'GCTGAACGACTATAATTA'
p4589
tp4590
a(S'CGGGATTATCGACTCGAA'
p4591
S'CGGGCTTATCGACTCGAA'
p4592
tp4593
a(S'CAGGTGCCGTTTTTATGT'
p4594
S'CAGGCGCCGTTTTTATGT'
p4595
tp4596
a(S'TATCTTGTATCTGAGGGT'
p4597
S'TATCTTGTATCTGAGGGC'
p4598
tp4599
a(S'TTGGGCAAATCTAGGGGC'
p4600
S'TTGGGTAAATCTAGGGGC'
p4601
tp4602
a(g767
g769
tp4603
a(S'AGGTCAAAAACTACCGAT'
p4604
S'AGGCCAAAAACTACCGAT'
p4605
tp4606
a(S'TGCACTAGCGGGCGTTGA'
p4607
S'TGCACTAGCGGGTGTTGA'
p4608
tp4609
a(S'TGTCGACAATATCTGAGC'
p4610
S'TGTCGACAATATCTGAGT'
p4611
tp4612
a(S'ACGCTAGGTAATCAAGCA'
p4613
S'ACGCTAGGCAATCAAGCA'
p4614
tp4615
a(g1223
g1225
tp4616
a(S'AAAGCGGAAGTGCGCCGT'
p4617
S'AAAGTGGAAGTGCGCCGT'
p4618
tp4619
a(g4510
g4512
tp4620
a(S'GGGCTGAGAGTGGCGGGT'
p4621
S'GGGCTGAGAGTGGCGGGG'
p4622
tp4623
a(g4074
g4076
tp4624
a(S'TGCCAGACGATTAACCGG'
p4625
S'TGCCCGACGATTAACCGG'
p4626
tp4627
a(S'CGTCATATAAACAGGACA'
p4628
S'TGTCATATAAACAGGACA'
p4629
tp4630
a(S'CAATGTTACCAGGTCCGC'
p4631
S'CAATGTTACCAGGCCCGC'
p4632
tp4633
a(S'GGGAGAGGGAGGCAAGGA'
p4634
S'GGGAGAGGGAGGCCAGGA'
p4635
tp4636
a(S'TATGTCAAAAACAATCCA'
p4637
S'TATGTAAAAAACAATCCA'
p4638
tp4639
a(S'GGTTGAGGAAGGCAGGAC'
p4640
g2404
tp4641
a(S'TCCCGAGCCAGGATTACT'
p4642
S'TCCCGCGCCAGGATTACT'
p4643
tp4644
a(S'TGTGCACCCAGTACCAAG'
p4645
g4206
tp4646
a(S'GTCAACTGCTTGCGGTCG'
p4647
S'GTCAACTGTTTGCGGTCG'
p4648
tp4649
a(S'TCCGCGACTTAAGTGTTA'
p4650
S'TCCGAGACTTAAGTGTTA'
p4651
tp4652
a(S'CGGTGGTCGGAGGGTGTC'
p4653
S'CGGCGGTCGGAGGGTGTC'
p4654
tp4655
a(g4653
S'CGGTGGTCGGAGGGAGTC'
p4656
tp4657
a(g4653
S'CGGAGGTCGGAGGGTGTC'
p4658
tp4659
a(S'CATTTCGGTGGGTATCAG'
p4660
S'CATTTCGGCGGGTATCAG'
p4661
tp4662
a(S'CAAACGCGTTGATAAGGA'
p4663
S'CAAAAGCGTTGATAAGGA'
p4664
tp4665
a(S'GCCGAACTTGTTGGACGA'
p4666
S'GCCGCACTTGTTGGACGA'
p4667
tp4668
a(S'TACGTCTACTGTCTGGAA'
p4669
S'TACGCCTACTGTCTGGAA'
p4670
tp4671
a(S'GCCGCCTTAGACGGGGTA'
p4672
S'GCTGCCTTAGACGGGGTA'
p4673
tp4674
a(g3409
S'TGGGGTTGGGCGTTTCGT'
p4675
tp4676
a(g3813
S'TTGCAGAGTGGGCACGTA'
p4677
tp4678
a(S'ACATTTACCGAGTTCACT'
p4679
S'ACATTTACCGAGTTCACG'
p4680
tp4681
a(S'ACAGTAGGGCAGGCGGGC'
p4682
S'ACAGTAGGGCAGGCGGGG'
p4683
tp4684
a(g4682
S'ACAGTAGGGCAGGCGGGT'
p4685
tp4686
a(S'GGCATAGGGTGTTAGTAG'
p4687
S'GGCATAGGGAGTTAGTAG'
p4688
tp4689
a(g1049
g1051
tp4690
a(g4324
g4326
tp4691
a(g2746
g2748
tp4692
a(S'TGGGGATGGGCGTTAGGA'
p4693
S'TGGGGATGGGAGTTAGGA'
p4694
tp4695
a(S'TGTCGCGCCGTGTGTAGC'
p4696
S'TGACGCGCCGTGTGTAGC'
p4697
tp4698
a(S'TTCGCGGCTATAGCTACT'
p4699
S'TTCGAGGCTATAGCTACT'
p4700
tp4701
a(S'TATCATGGTATATACAAG'
p4702
S'TATCATGGCATATACAAG'
p4703
tp4704
a(S'CGGCGGGTACTTTCGCGG'
p4705
g4448
tp4706
a(g4626
S'TGCCCGACGATTAACCGT'
p4707
tp4708
a(S'ATGCAGACCGTTATGTAA'
p4709
S'ATGTAGACCGTTATGTAA'
p4710
tp4711
a(S'ACGGCAGGGGGCGTATTG'
p4712
g4359
tp4713
a(S'ACCTCTTATCTAGAAAAA'
p4714
S'ACCTCTTATCGAGAAAAA'
p4715
tp4716
a(S'TCTTATCATAGAGGTCGT'
p4717
S'TCTTATCATAGAGGTCGG'
p4718
tp4719
a(g2896
g2898
tp4720
a(S'CAACTCGGAATTCTAAAA'
p4721
S'CAACTCGGCATTCTAAAA'
p4722
tp4723
a(S'CCAAAAACGCGAAGCTGG'
p4724
S'CCAAAAACGCGAAGCGGG'
p4725
tp4726
a(g4654
g4658
tp4727
a(S'TGCCGCGTCGAATCTCGG'
p4728
S'TGTCGCGTCGAATCTCGG'
p4729
tp4730
a(S'AGGGAGCGCGGGTAACCA'
p4731
S'AGGGAGCGTGGGTAACCA'
p4732
tp4733
a(S'TGGGGAGGGATTATCCGT'
p4734
S'TGGGGCGGGATTATCCGT'
p4735
tp4736
a(S'CAGGCATTATACCAAGCA'
p4737
S'CAGGCATGATACCAAGCA'
p4738
tp4739
a(g4313
g4315
tp4740
a(S'CGGGGTATGAAATCATGC'
p4741
S'CGGGGCATGAAATCATGC'
p4742
tp4743
a(S'TGGTGTGTGGTTAATCTT'
p4744
S'TGGTGCGTGGTTAATCTT'
p4745
tp4746
a(S'CGCGAACCGTACCGACAG'
p4747
S'CGCGAACCGTACCGACAT'
p4748
tp4749
a(S'TGGAATCGGGTGAAGCCT'
p4750
S'TGGAATCGGGCGAAGCCT'
p4751
tp4752
a(S'AGCAAACCTGTAAATCTT'
p4753
S'AGCACACCTGTAAATCTT'
p4754
tp4755
a(S'CCTCAGGGTGAATTAGTA'
p4756
S'CCTCAGGGCGAATTAGTA'
p4757
tp4758
a(S'ACTTGAGTATAAGTCGGA'
p4759
S'ACTTGAGCATAAGTCGGA'
p4760
tp4761
a(S'TCTATTAACTACTACAAG'
p4762
S'TCTATTAACTACTACAAT'
p4763
tp4764
a(S'GTCGTGCGATGGCAAAAG'
p4765
S'GTCGCGCGATGGCAAAAG'
p4766
tp4767
a(S'TCTACACGAAAGTATCCA'
p4768
S'TCTACACGAAAGCATCCA'
p4769
tp4770
a(S'TCGCCGAGGTTAACGAGC'
p4771
S'TCGCAGAGGTTAACGAGC'
p4772
tp4773
a(S'CCAGCATTGTATATCGAA'
p4774
S'CCAGAATTGTATATCGAA'
p4775
tp4776
a(S'GTGCACACCCCATATGTT'
p4777
S'GTGCACACCCCATATGTC'
p4778
tp4779
a(S'GGAGGCGTTGTGGCGGGG'
p4780
g3330
tp4781
a(S'CTCAGGGTCAACATACAA'
p4782
S'CTCAGGGTCAACATACAG'
p4783
tp4784
a(g4782
S'CTCAGGGTCAACATACAT'
p4785
tp4786
a(g4783
g4785
tp4787
a(S'AGCCCACCCACTAATTGT'
p4788
S'AGCCCACCCACTAATTGC'
p4789
tp4790
a(g4683
g4685
tp4791
a(g2436
g2438
tp4792
a.